TMS320C2000 Assembler PC v22.6.1 Tue Jul  2 19:04:17 2024

Copyright (c) 1996-2018 Texas Instruments Incorporated
sfra_gui_scicomms_driverlib.asm                                      PAGE    1

       1              ;***************************************************************
       2              ;* TMS320C2000 G3 C/C++ Codegen                               PC v22.6.1.LTS *
       3              ;* Date/Time created: Tue Jul  2 19:04:16 2024                 *
       4              ;***************************************************************
       5                      .compiler_opts --abi=eabi --cla_support=cla2 --diag_wrap=off --float_support=fpu32 --hll_source=on --
       6                      .asg    XAR2, FP
       7              
       8              $C$DW$CU        .dwtag  DW_TAG_compile_unit
       9                      .dwattr $C$DW$CU, DW_AT_name("../sfra_gui_scicomms_driverlib.c")
      10                      .dwattr $C$DW$CU, DW_AT_producer("TI TMS320C2000 G3 C/C++ Codegen PC v22.6.1.LTS Copyright (c) 1996-2
      11                      .dwattr $C$DW$CU, DW_AT_TI_version(0x01)
      12                      .dwattr $C$DW$CU, DW_AT_comp_dir("C:\Users\Lenovo\workspace_v13\PCMC_PSFB_F28004x\RELEASE")
      13              
      14              ;**************************************************************
      15              ;* FUNCTION SYNONYMS                                          *
      16              ;**************************************************************
      17                      .global ||SFRA_GUI_getVariable||
      18        0000! ||SFRA_GUI_getVariable||        .set ||SFRA_GUI_sendData||
      19                      .global ||SFRA_GUI_getArray||
      20        0000! ||SFRA_GUI_getArray||   .set ||SFRA_GUI_sendData||
      21              
      22              $C$DW$1 .dwtag  DW_TAG_subprogram
      23                      .dwattr $C$DW$1, DW_AT_name("GPIO_setPinConfig")
      24                      .dwattr $C$DW$1, DW_AT_linkage_name("GPIO_setPinConfig")
      25                      .dwattr $C$DW$1, DW_AT_declaration
      26                      .dwattr $C$DW$1, DW_AT_external
      27                      .dwattr $C$DW$1, DW_AT_decl_file("C:/ti/C2000Ware_DigitalPower_SDK_5_02_01_00/c2000ware/driverlib/f28
      28                      .dwattr $C$DW$1, DW_AT_decl_line(0x3fe)
      29                      .dwattr $C$DW$1, DW_AT_decl_column(0x01)
      30              $C$DW$2 .dwtag  DW_TAG_formal_parameter
      31                      .dwattr $C$DW$2, DW_AT_type(*$C$DW$T$34)
      32              
      33                      .dwendtag $C$DW$1
      34              
      35              
      36              $C$DW$3 .dwtag  DW_TAG_subprogram
      37                      .dwattr $C$DW$3, DW_AT_name("GPIO_setQualificationMode")
      38                      .dwattr $C$DW$3, DW_AT_linkage_name("GPIO_setQualificationMode")
      39                      .dwattr $C$DW$3, DW_AT_declaration
      40                      .dwattr $C$DW$3, DW_AT_external
      41                      .dwattr $C$DW$3, DW_AT_decl_file("C:/ti/C2000Ware_DigitalPower_SDK_5_02_01_00/c2000ware/driverlib/f28
      42                      .dwattr $C$DW$3, DW_AT_decl_line(0x38f)
      43                      .dwattr $C$DW$3, DW_AT_decl_column(0x01)
      44              $C$DW$4 .dwtag  DW_TAG_formal_parameter
      45                      .dwattr $C$DW$4, DW_AT_type(*$C$DW$T$34)
      46              
      47              $C$DW$5 .dwtag  DW_TAG_formal_parameter
      48                      .dwattr $C$DW$5, DW_AT_type(*$C$DW$T$27)
      49              
      50                      .dwendtag $C$DW$3
      51              
      52              
      53              $C$DW$6 .dwtag  DW_TAG_subprogram
      54                      .dwattr $C$DW$6, DW_AT_name("SCI_setConfig")
      55                      .dwattr $C$DW$6, DW_AT_linkage_name("SCI_setConfig")
TMS320C2000 Assembler PC v22.6.1 Tue Jul  2 19:04:17 2024

Copyright (c) 1996-2018 Texas Instruments Incorporated
sfra_gui_scicomms_driverlib.asm                                      PAGE    2

      56                      .dwattr $C$DW$6, DW_AT_declaration
      57                      .dwattr $C$DW$6, DW_AT_external
      58                      .dwattr $C$DW$6, DW_AT_decl_file("C:/ti/C2000Ware_DigitalPower_SDK_5_02_01_00/c2000ware/driverlib/f28
      59                      .dwattr $C$DW$6, DW_AT_decl_line(0x5ba)
      60                      .dwattr $C$DW$6, DW_AT_decl_column(0x01)
      61              $C$DW$7 .dwtag  DW_TAG_formal_parameter
      62                      .dwattr $C$DW$7, DW_AT_type(*$C$DW$T$34)
      63              
      64              $C$DW$8 .dwtag  DW_TAG_formal_parameter
      65                      .dwattr $C$DW$8, DW_AT_type(*$C$DW$T$34)
      66              
      67              $C$DW$9 .dwtag  DW_TAG_formal_parameter
      68                      .dwattr $C$DW$9, DW_AT_type(*$C$DW$T$34)
      69              
      70              $C$DW$10        .dwtag  DW_TAG_formal_parameter
      71                      .dwattr $C$DW$10, DW_AT_type(*$C$DW$T$34)
      72              
      73                      .dwendtag $C$DW$6
      74              
      75              
      76              $C$DW$11        .dwtag  DW_TAG_subprogram
      77                      .dwattr $C$DW$11, DW_AT_name("SCI_enableInterrupt")
      78                      .dwattr $C$DW$11, DW_AT_linkage_name("SCI_enableInterrupt")
      79                      .dwattr $C$DW$11, DW_AT_declaration
      80                      .dwattr $C$DW$11, DW_AT_external
      81                      .dwattr $C$DW$11, DW_AT_decl_file("C:/ti/C2000Ware_DigitalPower_SDK_5_02_01_00/c2000ware/driverlib/f2
      82                      .dwattr $C$DW$11, DW_AT_decl_line(0x605)
      83                      .dwattr $C$DW$11, DW_AT_decl_column(0x01)
      84              $C$DW$12        .dwtag  DW_TAG_formal_parameter
      85                      .dwattr $C$DW$12, DW_AT_type(*$C$DW$T$34)
      86              
      87              $C$DW$13        .dwtag  DW_TAG_formal_parameter
      88                      .dwattr $C$DW$13, DW_AT_type(*$C$DW$T$34)
      89              
      90                      .dwendtag $C$DW$11
      91              
      92              
      93              $C$DW$14        .dwtag  DW_TAG_subprogram
      94                      .dwattr $C$DW$14, DW_AT_name("SCI_clearInterruptStatus")
      95                      .dwattr $C$DW$14, DW_AT_linkage_name("SCI_clearInterruptStatus")
      96                      .dwattr $C$DW$14, DW_AT_declaration
      97                      .dwattr $C$DW$14, DW_AT_external
      98                      .dwattr $C$DW$14, DW_AT_decl_file("C:/ti/C2000Ware_DigitalPower_SDK_5_02_01_00/c2000ware/driverlib/f2
      99                      .dwattr $C$DW$14, DW_AT_decl_line(0x63a)
     100                      .dwattr $C$DW$14, DW_AT_decl_column(0x01)
     101              $C$DW$15        .dwtag  DW_TAG_formal_parameter
     102                      .dwattr $C$DW$15, DW_AT_type(*$C$DW$T$34)
     103              
     104              $C$DW$16        .dwtag  DW_TAG_formal_parameter
     105                      .dwattr $C$DW$16, DW_AT_type(*$C$DW$T$34)
     106              
     107                      .dwendtag $C$DW$14
     108              
     109              
     110              $C$DW$17        .dwtag  DW_TAG_subprogram
TMS320C2000 Assembler PC v22.6.1 Tue Jul  2 19:04:17 2024

Copyright (c) 1996-2018 Texas Instruments Incorporated
sfra_gui_scicomms_driverlib.asm                                      PAGE    3

     111                      .dwattr $C$DW$17, DW_AT_name("GPIO_setDirectionMode")
     112                      .dwattr $C$DW$17, DW_AT_linkage_name("GPIO_setDirectionMode")
     113                      .dwattr $C$DW$17, DW_AT_declaration
     114                      .dwattr $C$DW$17, DW_AT_external
     115                      .dwattr $C$DW$17, DW_AT_decl_file("C:/ti/C2000Ware_DigitalPower_SDK_5_02_01_00/c2000ware/driverlib/f2
     116                      .dwattr $C$DW$17, DW_AT_decl_line(0x31f)
     117                      .dwattr $C$DW$17, DW_AT_decl_column(0x01)
     118              $C$DW$18        .dwtag  DW_TAG_formal_parameter
     119                      .dwattr $C$DW$18, DW_AT_type(*$C$DW$T$34)
     120              
     121              $C$DW$19        .dwtag  DW_TAG_formal_parameter
     122                      .dwattr $C$DW$19, DW_AT_type(*$C$DW$T$25)
     123              
     124                      .dwendtag $C$DW$17
     125              
     126                      .global ||SFRA_GUI_commsOKflg||
     127 00000000               .bss    ||SFRA_GUI_commsOKflg||,1,1,0
     128              $C$DW$20        .dwtag  DW_TAG_variable
     129                      .dwattr $C$DW$20, DW_AT_name("SFRA_GUI_commsOKflg")
     130                      .dwattr $C$DW$20, DW_AT_linkage_name("SFRA_GUI_commsOKflg")
     131                      .dwattr $C$DW$20, DW_AT_location[DW_OP_addr ||SFRA_GUI_commsOKflg||]
     132                      .dwattr $C$DW$20, DW_AT_type(*$C$DW$T$65)
     133                      .dwattr $C$DW$20, DW_AT_external
     134                      .dwattr $C$DW$20, DW_AT_decl_file("../sfra_gui_scicomms_driverlib.c")
     135                      .dwattr $C$DW$20, DW_AT_decl_line(0x48)
     136                      .dwattr $C$DW$20, DW_AT_decl_column(0x12)
     137              
     138                      .global ||SFRA_GUI_serialCommsTimer||
     139 00000001               .bss    ||SFRA_GUI_serialCommsTimer||,1,1,0
     140              $C$DW$21        .dwtag  DW_TAG_variable
     141                      .dwattr $C$DW$21, DW_AT_name("SFRA_GUI_serialCommsTimer")
     142                      .dwattr $C$DW$21, DW_AT_linkage_name("SFRA_GUI_serialCommsTimer")
     143                      .dwattr $C$DW$21, DW_AT_location[DW_OP_addr ||SFRA_GUI_serialCommsTimer||]
     144                      .dwattr $C$DW$21, DW_AT_type(*$C$DW$T$65)
     145                      .dwattr $C$DW$21, DW_AT_external
     146                      .dwattr $C$DW$21, DW_AT_decl_file("../sfra_gui_scicomms_driverlib.c")
     147                      .dwattr $C$DW$21, DW_AT_decl_line(0x49)
     148                      .dwattr $C$DW$21, DW_AT_decl_column(0x12)
     149              
     150                      .global ||SFRA_GUI_lowByteFlag||
     151 00000002               .bss    ||SFRA_GUI_lowByteFlag||,1,1,0
     152              $C$DW$22        .dwtag  DW_TAG_variable
     153                      .dwattr $C$DW$22, DW_AT_name("SFRA_GUI_lowByteFlag")
     154                      .dwattr $C$DW$22, DW_AT_linkage_name("SFRA_GUI_lowByteFlag")
     155                      .dwattr $C$DW$22, DW_AT_location[DW_OP_addr ||SFRA_GUI_lowByteFlag||]
     156                      .dwattr $C$DW$22, DW_AT_type(*$C$DW$T$42)
     157                      .dwattr $C$DW$22, DW_AT_external
     158                      .dwattr $C$DW$22, DW_AT_decl_file("../sfra_gui_scicomms_driverlib.c")
     159                      .dwattr $C$DW$22, DW_AT_decl_line(0x4d)
     160                      .dwattr $C$DW$22, DW_AT_decl_column(0x0a)
     161              
     162                      .global ||SFRA_GUI_sendTaskPtr||
     163 00000003               .bss    ||SFRA_GUI_sendTaskPtr||,1,1,0
     164              $C$DW$23        .dwtag  DW_TAG_variable
     165                      .dwattr $C$DW$23, DW_AT_name("SFRA_GUI_sendTaskPtr")
TMS320C2000 Assembler PC v22.6.1 Tue Jul  2 19:04:17 2024

Copyright (c) 1996-2018 Texas Instruments Incorporated
sfra_gui_scicomms_driverlib.asm                                      PAGE    4

     166                      .dwattr $C$DW$23, DW_AT_linkage_name("SFRA_GUI_sendTaskPtr")
     167                      .dwattr $C$DW$23, DW_AT_location[DW_OP_addr ||SFRA_GUI_sendTaskPtr||]
     168                      .dwattr $C$DW$23, DW_AT_type(*$C$DW$T$42)
     169                      .dwattr $C$DW$23, DW_AT_external
     170                      .dwattr $C$DW$23, DW_AT_decl_file("../sfra_gui_scicomms_driverlib.c")
     171                      .dwattr $C$DW$23, DW_AT_decl_line(0x4e)
     172                      .dwattr $C$DW$23, DW_AT_decl_column(0x0a)
     173              
     174                      .global ||SFRA_GUI_rxChar||
     175 00000004               .bss    ||SFRA_GUI_rxChar||,1,1,0
     176              $C$DW$24        .dwtag  DW_TAG_variable
     177                      .dwattr $C$DW$24, DW_AT_name("SFRA_GUI_rxChar")
     178                      .dwattr $C$DW$24, DW_AT_linkage_name("SFRA_GUI_rxChar")
     179                      .dwattr $C$DW$24, DW_AT_location[DW_OP_addr ||SFRA_GUI_rxChar||]
     180                      .dwattr $C$DW$24, DW_AT_type(*$C$DW$T$42)
     181                      .dwattr $C$DW$24, DW_AT_external
     182                      .dwattr $C$DW$24, DW_AT_decl_file("../sfra_gui_scicomms_driverlib.c")
     183                      .dwattr $C$DW$24, DW_AT_decl_line(0x4f)
     184                      .dwattr $C$DW$24, DW_AT_decl_column(0x0a)
     185              
     186                      .global ||SFRA_GUI_rxWord||
     187 00000005               .bss    ||SFRA_GUI_rxWord||,1,1,0
     188              $C$DW$25        .dwtag  DW_TAG_variable
     189                      .dwattr $C$DW$25, DW_AT_name("SFRA_GUI_rxWord")
     190                      .dwattr $C$DW$25, DW_AT_linkage_name("SFRA_GUI_rxWord")
     191                      .dwattr $C$DW$25, DW_AT_location[DW_OP_addr ||SFRA_GUI_rxWord||]
     192                      .dwattr $C$DW$25, DW_AT_type(*$C$DW$T$42)
     193                      .dwattr $C$DW$25, DW_AT_external
     194                      .dwattr $C$DW$25, DW_AT_decl_file("../sfra_gui_scicomms_driverlib.c")
     195                      .dwattr $C$DW$25, DW_AT_decl_line(0x50)
     196                      .dwattr $C$DW$25, DW_AT_decl_column(0x0a)
     197              
     198                      .global ||SFRA_GUI_taskDoneFlag||
     199 00000006               .bss    ||SFRA_GUI_taskDoneFlag||,1,1,0
     200              $C$DW$26        .dwtag  DW_TAG_variable
     201                      .dwattr $C$DW$26, DW_AT_name("SFRA_GUI_taskDoneFlag")
     202                      .dwattr $C$DW$26, DW_AT_linkage_name("SFRA_GUI_taskDoneFlag")
     203                      .dwattr $C$DW$26, DW_AT_location[DW_OP_addr ||SFRA_GUI_taskDoneFlag||]
     204                      .dwattr $C$DW$26, DW_AT_type(*$C$DW$T$42)
     205                      .dwattr $C$DW$26, DW_AT_external
     206                      .dwattr $C$DW$26, DW_AT_decl_file("../sfra_gui_scicomms_driverlib.c")
     207                      .dwattr $C$DW$26, DW_AT_decl_line(0x52)
     208                      .dwattr $C$DW$26, DW_AT_decl_column(0x0a)
     209              
     210                      .global ||SFRA_GUI_numWords||
     211 00000007               .bss    ||SFRA_GUI_numWords||,1,1,0
     212              $C$DW$27        .dwtag  DW_TAG_variable
     213                      .dwattr $C$DW$27, DW_AT_name("SFRA_GUI_numWords")
     214                      .dwattr $C$DW$27, DW_AT_linkage_name("SFRA_GUI_numWords")
     215                      .dwattr $C$DW$27, DW_AT_location[DW_OP_addr ||SFRA_GUI_numWords||]
     216                      .dwattr $C$DW$27, DW_AT_type(*$C$DW$T$42)
     217                      .dwattr $C$DW$27, DW_AT_external
     218                      .dwattr $C$DW$27, DW_AT_decl_file("../sfra_gui_scicomms_driverlib.c")
     219                      .dwattr $C$DW$27, DW_AT_decl_line(0x53)
     220                      .dwattr $C$DW$27, DW_AT_decl_column(0x0a)
TMS320C2000 Assembler PC v22.6.1 Tue Jul  2 19:04:17 2024

Copyright (c) 1996-2018 Texas Instruments Incorporated
sfra_gui_scicomms_driverlib.asm                                      PAGE    5

     221              
     222                      .global ||SFRA_GUI_wordsLeftToGet||
     223 00000008               .bss    ||SFRA_GUI_wordsLeftToGet||,1,1,0
     224              $C$DW$28        .dwtag  DW_TAG_variable
     225                      .dwattr $C$DW$28, DW_AT_name("SFRA_GUI_wordsLeftToGet")
     226                      .dwattr $C$DW$28, DW_AT_linkage_name("SFRA_GUI_wordsLeftToGet")
     227                      .dwattr $C$DW$28, DW_AT_location[DW_OP_addr ||SFRA_GUI_wordsLeftToGet||]
     228                      .dwattr $C$DW$28, DW_AT_type(*$C$DW$T$42)
     229                      .dwattr $C$DW$28, DW_AT_external
     230                      .dwattr $C$DW$28, DW_AT_decl_file("../sfra_gui_scicomms_driverlib.c")
     231                      .dwattr $C$DW$28, DW_AT_decl_line(0x54)
     232                      .dwattr $C$DW$28, DW_AT_decl_column(0x0a)
     233              
     234                      .global ||SFRA_GUI_dataOut16||
     235 00000009               .bss    ||SFRA_GUI_dataOut16||,1,1,0
     236              $C$DW$29        .dwtag  DW_TAG_variable
     237                      .dwattr $C$DW$29, DW_AT_name("SFRA_GUI_dataOut16")
     238                      .dwattr $C$DW$29, DW_AT_linkage_name("SFRA_GUI_dataOut16")
     239                      .dwattr $C$DW$29, DW_AT_location[DW_OP_addr ||SFRA_GUI_dataOut16||]
     240                      .dwattr $C$DW$29, DW_AT_type(*$C$DW$T$42)
     241                      .dwattr $C$DW$29, DW_AT_external
     242                      .dwattr $C$DW$29, DW_AT_decl_file("../sfra_gui_scicomms_driverlib.c")
     243                      .dwattr $C$DW$29, DW_AT_decl_line(0x56)
     244                      .dwattr $C$DW$29, DW_AT_decl_column(0x0a)
     245              
     246                      .global ||SFRA_GUI_rcvTskPtrShdw||
     247 0000000a               .bss    ||SFRA_GUI_rcvTskPtrShdw||,1,1,0
     248              $C$DW$30        .dwtag  DW_TAG_variable
     249                      .dwattr $C$DW$30, DW_AT_name("SFRA_GUI_rcvTskPtrShdw")
     250                      .dwattr $C$DW$30, DW_AT_linkage_name("SFRA_GUI_rcvTskPtrShdw")
     251                      .dwattr $C$DW$30, DW_AT_location[DW_OP_addr ||SFRA_GUI_rcvTskPtrShdw||]
     252                      .dwattr $C$DW$30, DW_AT_type(*$C$DW$T$22)
     253                      .dwattr $C$DW$30, DW_AT_external
     254                      .dwattr $C$DW$30, DW_AT_decl_file("../sfra_gui_scicomms_driverlib.c")
     255                      .dwattr $C$DW$30, DW_AT_decl_line(0x5f)
     256                      .dwattr $C$DW$30, DW_AT_decl_column(0x0a)
     257              
     258                      .global ||SFRA_GUI_delayer||
     259 0000000b               .bss    ||SFRA_GUI_delayer||,1,1,0
     260              $C$DW$31        .dwtag  DW_TAG_variable
     261                      .dwattr $C$DW$31, DW_AT_name("SFRA_GUI_delayer")
     262                      .dwattr $C$DW$31, DW_AT_linkage_name("SFRA_GUI_delayer")
     263                      .dwattr $C$DW$31, DW_AT_location[DW_OP_addr ||SFRA_GUI_delayer||]
     264                      .dwattr $C$DW$31, DW_AT_type(*$C$DW$T$22)
     265                      .dwattr $C$DW$31, DW_AT_external
     266                      .dwattr $C$DW$31, DW_AT_decl_file("../sfra_gui_scicomms_driverlib.c")
     267                      .dwattr $C$DW$31, DW_AT_decl_line(0x61)
     268                      .dwattr $C$DW$31, DW_AT_decl_column(0x09)
     269              
     270                      .global ||SFRA_GUI_memGetPtr||
     271 0000000c               .bss    ||SFRA_GUI_memGetPtr||,1,1,0
     272              $C$DW$32        .dwtag  DW_TAG_variable
     273                      .dwattr $C$DW$32, DW_AT_name("SFRA_GUI_memGetPtr")
     274                      .dwattr $C$DW$32, DW_AT_linkage_name("SFRA_GUI_memGetPtr")
     275                      .dwattr $C$DW$32, DW_AT_location[DW_OP_addr ||SFRA_GUI_memGetPtr||]
TMS320C2000 Assembler PC v22.6.1 Tue Jul  2 19:04:17 2024

Copyright (c) 1996-2018 Texas Instruments Incorporated
sfra_gui_scicomms_driverlib.asm                                      PAGE    6

     276                      .dwattr $C$DW$32, DW_AT_type(*$C$DW$T$22)
     277                      .dwattr $C$DW$32, DW_AT_external
     278                      .dwattr $C$DW$32, DW_AT_decl_file("../sfra_gui_scicomms_driverlib.c")
     279                      .dwattr $C$DW$32, DW_AT_decl_line(0x63)
     280                      .dwattr $C$DW$32, DW_AT_decl_column(0x09)
     281              
     282                      .global ||SFRA_GUI_memGetAmount||
     283 0000000d               .bss    ||SFRA_GUI_memGetAmount||,1,1,0
     284              $C$DW$33        .dwtag  DW_TAG_variable
     285                      .dwattr $C$DW$33, DW_AT_name("SFRA_GUI_memGetAmount")
     286                      .dwattr $C$DW$33, DW_AT_linkage_name("SFRA_GUI_memGetAmount")
     287                      .dwattr $C$DW$33, DW_AT_location[DW_OP_addr ||SFRA_GUI_memGetAmount||]
     288                      .dwattr $C$DW$33, DW_AT_type(*$C$DW$T$22)
     289                      .dwattr $C$DW$33, DW_AT_external
     290                      .dwattr $C$DW$33, DW_AT_decl_file("../sfra_gui_scicomms_driverlib.c")
     291                      .dwattr $C$DW$33, DW_AT_decl_line(0x65)
     292                      .dwattr $C$DW$33, DW_AT_decl_column(0x09)
     293              
     294                      .global ||SFRA_GUI_memSetPtr||
     295 0000000e               .bss    ||SFRA_GUI_memSetPtr||,1,1,0
     296              $C$DW$34        .dwtag  DW_TAG_variable
     297                      .dwattr $C$DW$34, DW_AT_name("SFRA_GUI_memSetPtr")
     298                      .dwattr $C$DW$34, DW_AT_linkage_name("SFRA_GUI_memSetPtr")
     299                      .dwattr $C$DW$34, DW_AT_location[DW_OP_addr ||SFRA_GUI_memSetPtr||]
     300                      .dwattr $C$DW$34, DW_AT_type(*$C$DW$T$22)
     301                      .dwattr $C$DW$34, DW_AT_external
     302                      .dwattr $C$DW$34, DW_AT_decl_file("../sfra_gui_scicomms_driverlib.c")
     303                      .dwattr $C$DW$34, DW_AT_decl_line(0x67)
     304                      .dwattr $C$DW$34, DW_AT_decl_column(0x09)
     305              
     306                      .global ||SFRA_GUI_led_flag||
     307 0000000f               .bss    ||SFRA_GUI_led_flag||,1,1,0
     308              $C$DW$35        .dwtag  DW_TAG_variable
     309                      .dwattr $C$DW$35, DW_AT_name("SFRA_GUI_led_flag")
     310                      .dwattr $C$DW$35, DW_AT_linkage_name("SFRA_GUI_led_flag")
     311                      .dwattr $C$DW$35, DW_AT_location[DW_OP_addr ||SFRA_GUI_led_flag||]
     312                      .dwattr $C$DW$35, DW_AT_type(*$C$DW$T$42)
     313                      .dwattr $C$DW$35, DW_AT_external
     314                      .dwattr $C$DW$35, DW_AT_decl_file("../sfra_gui_scicomms_driverlib.c")
     315                      .dwattr $C$DW$35, DW_AT_decl_line(0x6c)
     316                      .dwattr $C$DW$35, DW_AT_decl_column(0x0a)
     317              
     318                      .global ||SFRA_GUI_led_gpio||
     319 00000010               .bss    ||SFRA_GUI_led_gpio||,1,1,0
     320              $C$DW$36        .dwtag  DW_TAG_variable
     321                      .dwattr $C$DW$36, DW_AT_name("SFRA_GUI_led_gpio")
     322                      .dwattr $C$DW$36, DW_AT_linkage_name("SFRA_GUI_led_gpio")
     323                      .dwattr $C$DW$36, DW_AT_location[DW_OP_addr ||SFRA_GUI_led_gpio||]
     324                      .dwattr $C$DW$36, DW_AT_type(*$C$DW$T$42)
     325                      .dwattr $C$DW$36, DW_AT_external
     326                      .dwattr $C$DW$36, DW_AT_decl_file("../sfra_gui_scicomms_driverlib.c")
     327                      .dwattr $C$DW$36, DW_AT_decl_line(0x6d)
     328                      .dwattr $C$DW$36, DW_AT_decl_column(0x0a)
     329              
     330                      .global ||SFRA_GUI_sweep_start||
TMS320C2000 Assembler PC v22.6.1 Tue Jul  2 19:04:17 2024

Copyright (c) 1996-2018 Texas Instruments Incorporated
sfra_gui_scicomms_driverlib.asm                                      PAGE    7

     331 00000011               .bss    ||SFRA_GUI_sweep_start||,1,1,0
     332              $C$DW$37        .dwtag  DW_TAG_variable
     333                      .dwattr $C$DW$37, DW_AT_name("SFRA_GUI_sweep_start")
     334                      .dwattr $C$DW$37, DW_AT_linkage_name("SFRA_GUI_sweep_start")
     335                      .dwattr $C$DW$37, DW_AT_location[DW_OP_addr ||SFRA_GUI_sweep_start||]
     336                      .dwattr $C$DW$37, DW_AT_type(*$C$DW$T$42)
     337                      .dwattr $C$DW$37, DW_AT_external
     338                      .dwattr $C$DW$37, DW_AT_decl_file("../sfra_gui_scicomms_driverlib.c")
     339                      .dwattr $C$DW$37, DW_AT_decl_line(0x6f)
     340                      .dwattr $C$DW$37, DW_AT_decl_column(0x0a)
     341              
     342                      .global ||SFRA_GUI_rcvTaskPointer||
     343 00000012               .bss    ||SFRA_GUI_rcvTaskPointer||,2,1,1
     344              $C$DW$38        .dwtag  DW_TAG_variable
     345                      .dwattr $C$DW$38, DW_AT_name("SFRA_GUI_rcvTaskPointer")
     346                      .dwattr $C$DW$38, DW_AT_linkage_name("SFRA_GUI_rcvTaskPointer")
     347                      .dwattr $C$DW$38, DW_AT_location[DW_OP_addr ||SFRA_GUI_rcvTaskPointer||]
     348                      .dwattr $C$DW$38, DW_AT_type(*$C$DW$T$52)
     349                      .dwattr $C$DW$38, DW_AT_external
     350                      .dwattr $C$DW$38, DW_AT_decl_file("../sfra_gui_scicomms_driverlib.c")
     351                      .dwattr $C$DW$38, DW_AT_decl_line(0x39)
     352                      .dwattr $C$DW$38, DW_AT_decl_column(0x08)
     353              
     354                      .global ||SFRA_GUI_sci_base_addr||
     355 00000014               .bss    ||SFRA_GUI_sci_base_addr||,2,1,1
     356              $C$DW$39        .dwtag  DW_TAG_variable
     357                      .dwattr $C$DW$39, DW_AT_name("SFRA_GUI_sci_base_addr")
     358                      .dwattr $C$DW$39, DW_AT_linkage_name("SFRA_GUI_sci_base_addr")
     359                      .dwattr $C$DW$39, DW_AT_location[DW_OP_addr ||SFRA_GUI_sci_base_addr||]
     360                      .dwattr $C$DW$39, DW_AT_type(*$C$DW$T$48)
     361                      .dwattr $C$DW$39, DW_AT_external
     362                      .dwattr $C$DW$39, DW_AT_decl_file("../sfra_gui_scicomms_driverlib.c")
     363                      .dwattr $C$DW$39, DW_AT_decl_line(0x4b)
     364                      .dwattr $C$DW$39, DW_AT_decl_column(0x13)
     365              
     366                      .global ||SFRA_GUI_dataOut32||
     367 00000016               .bss    ||SFRA_GUI_dataOut32||,2,1,1
     368              $C$DW$40        .dwtag  DW_TAG_variable
     369                      .dwattr $C$DW$40, DW_AT_name("SFRA_GUI_dataOut32")
     370                      .dwattr $C$DW$40, DW_AT_linkage_name("SFRA_GUI_dataOut32")
     371                      .dwattr $C$DW$40, DW_AT_location[DW_OP_addr ||SFRA_GUI_dataOut32||]
     372                      .dwattr $C$DW$40, DW_AT_type(*$C$DW$T$83)
     373                      .dwattr $C$DW$40, DW_AT_external
     374                      .dwattr $C$DW$40, DW_AT_decl_file("../sfra_gui_scicomms_driverlib.c")
     375                      .dwattr $C$DW$40, DW_AT_decl_line(0x57)
     376                      .dwattr $C$DW$40, DW_AT_decl_column(0x09)
     377              
     378                      .global ||SFRA_GUI_memDataPtr16||
     379 00000018               .bss    ||SFRA_GUI_memDataPtr16||,2,1,1
     380              $C$DW$41        .dwtag  DW_TAG_variable
     381                      .dwattr $C$DW$41, DW_AT_name("SFRA_GUI_memDataPtr16")
     382                      .dwattr $C$DW$41, DW_AT_linkage_name("SFRA_GUI_memDataPtr16")
     383                      .dwattr $C$DW$41, DW_AT_location[DW_OP_addr ||SFRA_GUI_memDataPtr16||]
     384                      .dwattr $C$DW$41, DW_AT_type(*$C$DW$T$64)
     385                      .dwattr $C$DW$41, DW_AT_external
TMS320C2000 Assembler PC v22.6.1 Tue Jul  2 19:04:17 2024

Copyright (c) 1996-2018 Texas Instruments Incorporated
sfra_gui_scicomms_driverlib.asm                                      PAGE    8

     386                      .dwattr $C$DW$41, DW_AT_decl_file("../sfra_gui_scicomms_driverlib.c")
     387                      .dwattr $C$DW$41, DW_AT_decl_line(0x59)
     388                      .dwattr $C$DW$41, DW_AT_decl_column(0x0a)
     389              
     390                      .global ||SFRA_GUI_memDataPtr32||
     391 0000001a               .bss    ||SFRA_GUI_memDataPtr32||,2,1,1
     392              $C$DW$42        .dwtag  DW_TAG_variable
     393                      .dwattr $C$DW$42, DW_AT_name("SFRA_GUI_memDataPtr32")
     394                      .dwattr $C$DW$42, DW_AT_linkage_name("SFRA_GUI_memDataPtr32")
     395                      .dwattr $C$DW$42, DW_AT_location[DW_OP_addr ||SFRA_GUI_memDataPtr32||]
     396                      .dwattr $C$DW$42, DW_AT_type(*$C$DW$T$84)
     397                      .dwattr $C$DW$42, DW_AT_external
     398                      .dwattr $C$DW$42, DW_AT_decl_file("../sfra_gui_scicomms_driverlib.c")
     399                      .dwattr $C$DW$42, DW_AT_decl_line(0x5a)
     400                      .dwattr $C$DW$42, DW_AT_decl_column(0x0a)
     401              
     402                      .global ||SFRA_GUI_memGetAddress||
     403 0000001c               .bss    ||SFRA_GUI_memGetAddress||,2,1,1
     404              $C$DW$43        .dwtag  DW_TAG_variable
     405                      .dwattr $C$DW$43, DW_AT_name("SFRA_GUI_memGetAddress")
     406                      .dwattr $C$DW$43, DW_AT_linkage_name("SFRA_GUI_memGetAddress")
     407                      .dwattr $C$DW$43, DW_AT_location[DW_OP_addr ||SFRA_GUI_memGetAddress||]
     408                      .dwattr $C$DW$43, DW_AT_type(*$C$DW$T$34)
     409                      .dwattr $C$DW$43, DW_AT_external
     410                      .dwattr $C$DW$43, DW_AT_decl_file("../sfra_gui_scicomms_driverlib.c")
     411                      .dwattr $C$DW$43, DW_AT_decl_line(0x64)
     412                      .dwattr $C$DW$43, DW_AT_decl_column(0x0a)
     413              
     414                      .global ||SFRA_GUI_memSetValue||
     415 0000001e               .bss    ||SFRA_GUI_memSetValue||,2,1,1
     416              $C$DW$44        .dwtag  DW_TAG_variable
     417                      .dwattr $C$DW$44, DW_AT_name("SFRA_GUI_memSetValue")
     418                      .dwattr $C$DW$44, DW_AT_linkage_name("SFRA_GUI_memSetValue")
     419                      .dwattr $C$DW$44, DW_AT_location[DW_OP_addr ||SFRA_GUI_memSetValue||]
     420                      .dwattr $C$DW$44, DW_AT_type(*$C$DW$T$34)
     421                      .dwattr $C$DW$44, DW_AT_external
     422                      .dwattr $C$DW$44, DW_AT_decl_file("../sfra_gui_scicomms_driverlib.c")
     423                      .dwattr $C$DW$44, DW_AT_decl_line(0x68)
     424                      .dwattr $C$DW$44, DW_AT_decl_column(0x0a)
     425              
     426                      .global ||SFRA_GUI_temp||
     427 00000020               .bss    ||SFRA_GUI_temp||,2,1,1
     428              $C$DW$45        .dwtag  DW_TAG_variable
     429                      .dwattr $C$DW$45, DW_AT_name("SFRA_GUI_temp")
     430                      .dwattr $C$DW$45, DW_AT_linkage_name("SFRA_GUI_temp")
     431                      .dwattr $C$DW$45, DW_AT_location[DW_OP_addr ||SFRA_GUI_temp||]
     432                      .dwattr $C$DW$45, DW_AT_type(*$C$DW$T$34)
     433                      .dwattr $C$DW$45, DW_AT_external
     434                      .dwattr $C$DW$45, DW_AT_decl_file("../sfra_gui_scicomms_driverlib.c")
     435                      .dwattr $C$DW$45, DW_AT_decl_line(0x6a)
     436                      .dwattr $C$DW$45, DW_AT_decl_column(0x0a)
     437              
     438                      .global ||SFRA_GUI_cmdPacket||
     439 00000000       ||SFRA_GUI_cmdPacket||: .usect  ".bss:SFRA_GUI_cmdPacket",6,0,0
     440              $C$DW$46        .dwtag  DW_TAG_variable
TMS320C2000 Assembler PC v22.6.1 Tue Jul  2 19:04:17 2024

Copyright (c) 1996-2018 Texas Instruments Incorporated
sfra_gui_scicomms_driverlib.asm                                      PAGE    9

     441                      .dwattr $C$DW$46, DW_AT_name("SFRA_GUI_cmdPacket")
     442                      .dwattr $C$DW$46, DW_AT_linkage_name("SFRA_GUI_cmdPacket")
     443                      .dwattr $C$DW$46, DW_AT_location[DW_OP_addr ||SFRA_GUI_cmdPacket||]
     444                      .dwattr $C$DW$46, DW_AT_type(*$C$DW$T$74)
     445                      .dwattr $C$DW$46, DW_AT_external
     446                      .dwattr $C$DW$46, DW_AT_decl_file("../sfra_gui_scicomms_driverlib.c")
     447                      .dwattr $C$DW$46, DW_AT_decl_line(0x51)
     448                      .dwattr $C$DW$46, DW_AT_decl_column(0x0a)
     449              
     450                      .global ||SFRA_GUI_cmdDispatcher||
     451 00000000       ||SFRA_GUI_cmdDispatcher||:     .usect  ".bss:SFRA_GUI_cmdDispatcher",32,0,1
     452              $C$DW$47        .dwtag  DW_TAG_variable
     453                      .dwattr $C$DW$47, DW_AT_name("SFRA_GUI_cmdDispatcher")
     454                      .dwattr $C$DW$47, DW_AT_linkage_name("SFRA_GUI_cmdDispatcher")
     455                      .dwattr $C$DW$47, DW_AT_location[DW_OP_addr ||SFRA_GUI_cmdDispatcher||]
     456                      .dwattr $C$DW$47, DW_AT_type(*$C$DW$T$53)
     457                      .dwattr $C$DW$47, DW_AT_external
     458                      .dwattr $C$DW$47, DW_AT_decl_file("../sfra_gui_scicomms_driverlib.c")
     459                      .dwattr $C$DW$47, DW_AT_decl_line(0x3e)
     460                      .dwattr $C$DW$47, DW_AT_decl_column(0x08)
     461              
     462                      .global ||SFRA_GUI_varSetTxtList||
     463 00000000       ||SFRA_GUI_varSetTxtList||:     .usect  ".bss:SFRA_GUI_varSetTxtList",32,0,1
     464              $C$DW$48        .dwtag  DW_TAG_variable
     465                      .dwattr $C$DW$48, DW_AT_name("SFRA_GUI_varSetTxtList")
     466                      .dwattr $C$DW$48, DW_AT_linkage_name("SFRA_GUI_varSetTxtList")
     467                      .dwattr $C$DW$48, DW_AT_location[DW_OP_addr ||SFRA_GUI_varSetTxtList||]
     468                      .dwattr $C$DW$48, DW_AT_type(*$C$DW$T$67)
     469                      .dwattr $C$DW$48, DW_AT_external
     470                      .dwattr $C$DW$48, DW_AT_decl_file("../sfra_gui_scicomms_driverlib.c")
     471                      .dwattr $C$DW$48, DW_AT_decl_line(0x40)
     472                      .dwattr $C$DW$48, DW_AT_decl_column(0x13)
     473              
     474                      .global ||SFRA_GUI_varSetBtnList||
     475 00000000       ||SFRA_GUI_varSetBtnList||:     .usect  ".bss:SFRA_GUI_varSetBtnList",32,0,1
     476              $C$DW$49        .dwtag  DW_TAG_variable
     477                      .dwattr $C$DW$49, DW_AT_name("SFRA_GUI_varSetBtnList")
     478                      .dwattr $C$DW$49, DW_AT_linkage_name("SFRA_GUI_varSetBtnList")
     479                      .dwattr $C$DW$49, DW_AT_location[DW_OP_addr ||SFRA_GUI_varSetBtnList||]
     480                      .dwattr $C$DW$49, DW_AT_type(*$C$DW$T$67)
     481                      .dwattr $C$DW$49, DW_AT_external
     482                      .dwattr $C$DW$49, DW_AT_decl_file("../sfra_gui_scicomms_driverlib.c")
     483                      .dwattr $C$DW$49, DW_AT_decl_line(0x41)
     484                      .dwattr $C$DW$49, DW_AT_decl_column(0x13)
     485              
     486                      .global ||SFRA_GUI_varSetSldrList||
     487 00000000       ||SFRA_GUI_varSetSldrList||:    .usect  ".bss:SFRA_GUI_varSetSldrList",32,0,1
     488              $C$DW$50        .dwtag  DW_TAG_variable
     489                      .dwattr $C$DW$50, DW_AT_name("SFRA_GUI_varSetSldrList")
     490                      .dwattr $C$DW$50, DW_AT_linkage_name("SFRA_GUI_varSetSldrList")
     491                      .dwattr $C$DW$50, DW_AT_location[DW_OP_addr ||SFRA_GUI_varSetSldrList||]
     492                      .dwattr $C$DW$50, DW_AT_type(*$C$DW$T$67)
     493                      .dwattr $C$DW$50, DW_AT_external
     494                      .dwattr $C$DW$50, DW_AT_decl_file("../sfra_gui_scicomms_driverlib.c")
     495                      .dwattr $C$DW$50, DW_AT_decl_line(0x42)
TMS320C2000 Assembler PC v22.6.1 Tue Jul  2 19:04:17 2024

Copyright (c) 1996-2018 Texas Instruments Incorporated
sfra_gui_scicomms_driverlib.asm                                      PAGE   10

     496                      .dwattr $C$DW$50, DW_AT_decl_column(0x13)
     497              
     498                      .global ||SFRA_GUI_varGetList||
     499 00000000       ||SFRA_GUI_varGetList||:        .usect  ".bss:SFRA_GUI_varGetList",32,0,1
     500              $C$DW$51        .dwtag  DW_TAG_variable
     501                      .dwattr $C$DW$51, DW_AT_name("SFRA_GUI_varGetList")
     502                      .dwattr $C$DW$51, DW_AT_linkage_name("SFRA_GUI_varGetList")
     503                      .dwattr $C$DW$51, DW_AT_location[DW_OP_addr ||SFRA_GUI_varGetList||]
     504                      .dwattr $C$DW$51, DW_AT_type(*$C$DW$T$67)
     505                      .dwattr $C$DW$51, DW_AT_external
     506                      .dwattr $C$DW$51, DW_AT_decl_file("../sfra_gui_scicomms_driverlib.c")
     507                      .dwattr $C$DW$51, DW_AT_decl_line(0x43)
     508                      .dwattr $C$DW$51, DW_AT_decl_column(0x13)
     509              
     510                      .global ||SFRA_GUI_arrayGetList||
     511 00000000       ||SFRA_GUI_arrayGetList||:      .usect  ".bss:SFRA_GUI_arrayGetList",32,0,1
     512              $C$DW$52        .dwtag  DW_TAG_variable
     513                      .dwattr $C$DW$52, DW_AT_name("SFRA_GUI_arrayGetList")
     514                      .dwattr $C$DW$52, DW_AT_linkage_name("SFRA_GUI_arrayGetList")
     515                      .dwattr $C$DW$52, DW_AT_location[DW_OP_addr ||SFRA_GUI_arrayGetList||]
     516                      .dwattr $C$DW$52, DW_AT_type(*$C$DW$T$87)
     517                      .dwattr $C$DW$52, DW_AT_external
     518                      .dwattr $C$DW$52, DW_AT_decl_file("../sfra_gui_scicomms_driverlib.c")
     519                      .dwattr $C$DW$52, DW_AT_decl_line(0x44)
     520                      .dwattr $C$DW$52, DW_AT_decl_column(0x13)
     521              
     522                      .global ||SFRA_GUI_dataGetList||
     523 00000000       ||SFRA_GUI_dataGetList||:       .usect  ".bss:SFRA_GUI_dataGetList",32,0,1
     524              $C$DW$53        .dwtag  DW_TAG_variable
     525                      .dwattr $C$DW$53, DW_AT_name("SFRA_GUI_dataGetList")
     526                      .dwattr $C$DW$53, DW_AT_linkage_name("SFRA_GUI_dataGetList")
     527                      .dwattr $C$DW$53, DW_AT_location[DW_OP_addr ||SFRA_GUI_dataGetList||]
     528                      .dwattr $C$DW$53, DW_AT_type(*$C$DW$T$67)
     529                      .dwattr $C$DW$53, DW_AT_external
     530                      .dwattr $C$DW$53, DW_AT_decl_file("../sfra_gui_scicomms_driverlib.c")
     531                      .dwattr $C$DW$53, DW_AT_decl_line(0x45)
     532                      .dwattr $C$DW$53, DW_AT_decl_column(0x13)
     533              
     534                      .global ||SFRA_GUI_dataSetList||
     535 00000000       ||SFRA_GUI_dataSetList||:       .usect  ".bss:SFRA_GUI_dataSetList",32,0,1
     536              $C$DW$54        .dwtag  DW_TAG_variable
     537                      .dwattr $C$DW$54, DW_AT_name("SFRA_GUI_dataSetList")
     538                      .dwattr $C$DW$54, DW_AT_linkage_name("SFRA_GUI_dataSetList")
     539                      .dwattr $C$DW$54, DW_AT_location[DW_OP_addr ||SFRA_GUI_dataSetList||]
     540                      .dwattr $C$DW$54, DW_AT_type(*$C$DW$T$95)
     541                      .dwattr $C$DW$54, DW_AT_external
     542                      .dwattr $C$DW$54, DW_AT_decl_file("../sfra_gui_scicomms_driverlib.c")
     543                      .dwattr $C$DW$54, DW_AT_decl_line(0x46)
     544                      .dwattr $C$DW$54, DW_AT_decl_column(0x14)
     545              
     546                      .sblock ".bss"
     547              ;       C:\ti\ccs1260\ccs\tools\compiler\ti-cgt-c2000_22.6.1.LTS\bin\opt2000.exe C:\\Users\\Lenovo\\AppData\\
     548              ;       C:\ti\ccs1260\ccs\tools\compiler\ti-cgt-c2000_22.6.1.LTS\bin\acia2000.exe -@C:\\Users\\Lenovo\\AppDat
     549 00000000               .sect   ".text:__signbitl"
     550                      .clink
TMS320C2000 Assembler PC v22.6.1 Tue Jul  2 19:04:17 2024

Copyright (c) 1996-2018 Texas Instruments Incorporated
sfra_gui_scicomms_driverlib.asm                                      PAGE   11

     551                      .global ||__signbitl||
     552              
     553              $C$DW$55        .dwtag  DW_TAG_subprogram
     554                      .dwattr $C$DW$55, DW_AT_name("__signbitl")
     555                      .dwattr $C$DW$55, DW_AT_low_pc(||__signbitl||)
     556                      .dwattr $C$DW$55, DW_AT_high_pc(0x00)
     557                      .dwattr $C$DW$55, DW_AT_linkage_name("__signbitl")
     558                      .dwattr $C$DW$55, DW_AT_external
     559                      .dwattr $C$DW$55, DW_AT_type(*$C$DW$T$10)
     560                      .dwattr $C$DW$55, DW_AT_decl_file("C:/ti/ccs1260/ccs/tools/compiler/ti-cgt-c2000_22.6.1.LTS/include/_
     561                      .dwattr $C$DW$55, DW_AT_decl_line(0x16f)
     562                      .dwattr $C$DW$55, DW_AT_decl_column(0x18)
     563                      .dwattr $C$DW$55, DW_AT_TI_max_frame_size(-6)
     564                      .dwpsn  file "C:/ti/ccs1260/ccs/tools/compiler/ti-cgt-c2000_22.6.1.LTS/include/_defs.h",line 368,colu
     565              
     566                      .dwfde $C$DW$CIE, ||__signbitl||
     567              $C$DW$56        .dwtag  DW_TAG_formal_parameter
     568                      .dwattr $C$DW$56, DW_AT_name("e")
     569                      .dwattr $C$DW$56, DW_AT_type(*$C$DW$T$103)
     570                      .dwattr $C$DW$56, DW_AT_location[DW_OP_reg12]
     571              
     572              
     573              ;***************************************************************
     574              ;* FNAME: __signbitl                    FR SIZE:   4           *
     575              ;*                                                             *
     576              ;* FUNCTION ENVIRONMENT                                        *
     577              ;*                                                             *
     578              ;* FUNCTION PROPERTIES                                         *
     579              ;*                            4 Parameter,  0 Auto,  0 SOE     *
     580              ;***************************************************************
     581              
     582              ||__signbitl||:
     583              ;* AR4   assigned to e
     584              $C$DW$57        .dwtag  DW_TAG_variable
     585                      .dwattr $C$DW$57, DW_AT_name("e")
     586                      .dwattr $C$DW$57, DW_AT_type(*$C$DW$T$104)
     587                      .dwattr $C$DW$57, DW_AT_location[DW_OP_reg12]
     588              
     589                      .dwcfi  cfa_offset, -2
     590                      .dwcfi  save_reg_to_mem, 26, 0
     591 00000000 FE04          ADDB      SP,#4                 ; [CPU_ARAU] 
     592                      .dwcfi  cfa_offset, -6
     593                      .dwpsn  file "C:/ti/ccs1260/ccs/tools/compiler/ti-cgt-c2000_22.6.1.LTS/include/_defs.h",line 368,colu
     594 00000001 0200          MOVB      ACC,#0                ; [CPU_ALU] |368| 
     595 00000002 1E44          MOVL      *-SP[4],ACC           ; [CPU_ALU] |368| 
     596 00000003 2B42          MOV       *-SP[2],#0            ; [CPU_ALU] |368| 
     597 00000004 2B41          MOV       *-SP[1],#0            ; [CPU_ALU] |368| 
     598 00000005 A3C4          MOVL      P,*+XAR4[0]           ; [CPU_ALU] |368| 
     599 00000006 06D4          MOVL      ACC,*+XAR4[2]         ; [CPU_ALU] |368| 
     600 00000007 18AB          AND       PL,#0                 ; [CPU_ALU] |368| 
         00000008 0000 
     601 00000009 18AA          AND       PH,#0                 ; [CPU_ALU] |368| 
         0000000a 0000 
     602 0000000b 9000          ANDB      AL,#0                 ; [CPU_ALU] |368| 
     603 0000000c 18A8          AND       AH,#32768             ; [CPU_ALU] |368| 
TMS320C2000 Assembler PC v22.6.1 Tue Jul  2 19:04:17 2024

Copyright (c) 1996-2018 Texas Instruments Incorporated
sfra_gui_scicomms_driverlib.asm                                      PAGE   12

         0000000d 8000 
     604              $C$DW$58        .dwtag  DW_TAG_TI_branch
     605                      .dwattr $C$DW$58, DW_AT_low_pc(0x00)
     606                      .dwattr $C$DW$58, DW_AT_name("__c28xabi_cmpull")
     607                      .dwattr $C$DW$58, DW_AT_TI_call
     608              
     609 0000000e 7640!         LCR       #||__c28xabi_cmpull|| ; [CPU_ALU] |368| 
         0000000f 0000 
     610                      ; call occurs [#||__c28xabi_cmpull||] ; [] |368| 
     611 00000010 9B00          MOVB      AH,#0                 ; [CPU_ALU] |368| 
     612 00000011 5200          CMPB      AL,#0                 ; [CPU_ALU] |368| 
     613 00000012 56B0          MOVB      AH,#1,NEQ             ; [CPU_ALU] |368| 
         00000013 01A8 
     614 00000014 92A8          MOV       AL,AH                 ; [CPU_ALU] |368| 
     615 00000015 FE84          SUBB      SP,#4                 ; [CPU_ARAU] 
     616                      .dwcfi  cfa_offset, -2
     617              $C$DW$59        .dwtag  DW_TAG_TI_branch
     618                      .dwattr $C$DW$59, DW_AT_low_pc(0x00)
     619                      .dwattr $C$DW$59, DW_AT_TI_return
     620              
     621 00000016 0006          LRETR     ; [CPU_ALU] 
     622                      ; return occurs ; [] 
     623                      .dwattr $C$DW$55, DW_AT_TI_end_file("C:/ti/ccs1260/ccs/tools/compiler/ti-cgt-c2000_22.6.1.LTS/include
     624                      .dwattr $C$DW$55, DW_AT_TI_end_line(0x170)
     625                      .dwattr $C$DW$55, DW_AT_TI_end_column(0x2b)
     626                      .dwendentry
     627                      .dwendtag $C$DW$55
     628              
     629 00000000               .sect   ".text:__signbitf"
     630                      .clink
     631                      .global ||__signbitf||
     632              
     633              $C$DW$60        .dwtag  DW_TAG_subprogram
     634                      .dwattr $C$DW$60, DW_AT_name("__signbitf")
     635                      .dwattr $C$DW$60, DW_AT_low_pc(||__signbitf||)
     636                      .dwattr $C$DW$60, DW_AT_high_pc(0x00)
     637                      .dwattr $C$DW$60, DW_AT_linkage_name("__signbitf")
     638                      .dwattr $C$DW$60, DW_AT_external
     639                      .dwattr $C$DW$60, DW_AT_type(*$C$DW$T$10)
     640                      .dwattr $C$DW$60, DW_AT_decl_file("C:/ti/ccs1260/ccs/tools/compiler/ti-cgt-c2000_22.6.1.LTS/include/_
     641                      .dwattr $C$DW$60, DW_AT_decl_line(0x16d)
     642                      .dwattr $C$DW$60, DW_AT_decl_column(0x18)
     643                      .dwattr $C$DW$60, DW_AT_TI_max_frame_size(-2)
     644                      .dwpsn  file "C:/ti/ccs1260/ccs/tools/compiler/ti-cgt-c2000_22.6.1.LTS/include/_defs.h",line 366,colu
     645              
     646                      .dwfde $C$DW$CIE, ||__signbitf||
     647              $C$DW$61        .dwtag  DW_TAG_formal_parameter
     648                      .dwattr $C$DW$61, DW_AT_name("f")
     649                      .dwattr $C$DW$61, DW_AT_type(*$C$DW$T$16)
     650                      .dwattr $C$DW$61, DW_AT_location[DW_OP_regx 0x2b]
     651              
     652              
     653              ;***************************************************************
     654              ;* FNAME: __signbitf                    FR SIZE:   0           *
     655              ;*                                                             *
TMS320C2000 Assembler PC v22.6.1 Tue Jul  2 19:04:17 2024

Copyright (c) 1996-2018 Texas Instruments Incorporated
sfra_gui_scicomms_driverlib.asm                                      PAGE   13

     656              ;* FUNCTION ENVIRONMENT                                        *
     657              ;*                                                             *
     658              ;* FUNCTION PROPERTIES                                         *
     659              ;*                            0 Parameter,  0 Auto,  0 SOE     *
     660              ;***************************************************************
     661              
     662              ||__signbitf||:
     663              ;* R0    assigned to f
     664              $C$DW$62        .dwtag  DW_TAG_variable
     665                      .dwattr $C$DW$62, DW_AT_name("f")
     666                      .dwattr $C$DW$62, DW_AT_type(*$C$DW$T$100)
     667                      .dwattr $C$DW$62, DW_AT_location[DW_OP_regx 0x2b]
     668              
     669                      .dwcfi  cfa_offset, -2
     670                      .dwcfi  save_reg_to_mem, 26, 0
     671                      .dwpsn  file "C:/ti/ccs1260/ccs/tools/compiler/ti-cgt-c2000_22.6.1.LTS/include/_defs.h",line 366,colu
     672 00000000 BFA9          MOV32     ACC,R0H               ; [CPU_FPU] |366| 
         00000001 0F12 
     673 00000002 BE00          MOVB      XAR6,#0               ; [CPU_ALU] |366| 
     674 00000003 9000          ANDB      AL,#0                 ; [CPU_ALU] |366| 
     675 00000004 18A8          AND       AH,#32768             ; [CPU_ALU] |366| 
         00000005 8000 
     676 00000006 FF58          TEST      ACC                   ; [CPU_ALU] |366| 
     677 00000007 56B0          MOVB      XAR6,#1,NEQ           ; [CPU_ALU] |366| 
         00000008 01A6 
     678 00000009 92A6          MOV       AL,AR6                ; [CPU_ALU] |366| 
     679              $C$DW$63        .dwtag  DW_TAG_TI_branch
     680                      .dwattr $C$DW$63, DW_AT_low_pc(0x00)
     681                      .dwattr $C$DW$63, DW_AT_TI_return
     682              
     683 0000000a 0006          LRETR     ; [CPU_ALU] 
     684                      ; return occurs ; [] 
     685                      .dwattr $C$DW$60, DW_AT_TI_end_file("C:/ti/ccs1260/ccs/tools/compiler/ti-cgt-c2000_22.6.1.LTS/include
     686                      .dwattr $C$DW$60, DW_AT_TI_end_line(0x16e)
     687                      .dwattr $C$DW$60, DW_AT_TI_end_column(0x29)
     688                      .dwendentry
     689                      .dwendtag $C$DW$60
     690              
     691 00000000               .sect   ".text:__signbit"
     692                      .clink
     693                      .global ||__signbit||
     694              
     695              $C$DW$64        .dwtag  DW_TAG_subprogram
     696                      .dwattr $C$DW$64, DW_AT_name("__signbit")
     697                      .dwattr $C$DW$64, DW_AT_low_pc(||__signbit||)
     698                      .dwattr $C$DW$64, DW_AT_high_pc(0x00)
     699                      .dwattr $C$DW$64, DW_AT_linkage_name("__signbit")
     700                      .dwattr $C$DW$64, DW_AT_external
     701                      .dwattr $C$DW$64, DW_AT_type(*$C$DW$T$10)
     702                      .dwattr $C$DW$64, DW_AT_decl_file("C:/ti/ccs1260/ccs/tools/compiler/ti-cgt-c2000_22.6.1.LTS/include/_
     703                      .dwattr $C$DW$64, DW_AT_decl_line(0x16b)
     704                      .dwattr $C$DW$64, DW_AT_decl_column(0x18)
     705                      .dwattr $C$DW$64, DW_AT_TI_max_frame_size(-6)
     706                      .dwpsn  file "C:/ti/ccs1260/ccs/tools/compiler/ti-cgt-c2000_22.6.1.LTS/include/_defs.h",line 364,colu
     707              
TMS320C2000 Assembler PC v22.6.1 Tue Jul  2 19:04:17 2024

Copyright (c) 1996-2018 Texas Instruments Incorporated
sfra_gui_scicomms_driverlib.asm                                      PAGE   14

     708                      .dwfde $C$DW$CIE, ||__signbit||
     709              $C$DW$65        .dwtag  DW_TAG_formal_parameter
     710                      .dwattr $C$DW$65, DW_AT_name("d")
     711                      .dwattr $C$DW$65, DW_AT_type(*$C$DW$T$101)
     712                      .dwattr $C$DW$65, DW_AT_location[DW_OP_reg12]
     713              
     714              
     715              ;***************************************************************
     716              ;* FNAME: __signbit                     FR SIZE:   4           *
     717              ;*                                                             *
     718              ;* FUNCTION ENVIRONMENT                                        *
     719              ;*                                                             *
     720              ;* FUNCTION PROPERTIES                                         *
     721              ;*                            4 Parameter,  0 Auto,  0 SOE     *
     722              ;***************************************************************
     723              
     724              ||__signbit||:
     725              ;* AR4   assigned to d
     726              $C$DW$66        .dwtag  DW_TAG_variable
     727                      .dwattr $C$DW$66, DW_AT_name("d")
     728                      .dwattr $C$DW$66, DW_AT_type(*$C$DW$T$102)
     729                      .dwattr $C$DW$66, DW_AT_location[DW_OP_reg12]
     730              
     731                      .dwcfi  cfa_offset, -2
     732                      .dwcfi  save_reg_to_mem, 26, 0
     733 00000000 FE04          ADDB      SP,#4                 ; [CPU_ARAU] 
     734                      .dwcfi  cfa_offset, -6
     735                      .dwpsn  file "C:/ti/ccs1260/ccs/tools/compiler/ti-cgt-c2000_22.6.1.LTS/include/_defs.h",line 364,colu
     736 00000001 0200          MOVB      ACC,#0                ; [CPU_ALU] |364| 
     737 00000002 1E44          MOVL      *-SP[4],ACC           ; [CPU_ALU] |364| 
     738 00000003 2B42          MOV       *-SP[2],#0            ; [CPU_ALU] |364| 
     739 00000004 2B41          MOV       *-SP[1],#0            ; [CPU_ALU] |364| 
     740 00000005 A3C4          MOVL      P,*+XAR4[0]           ; [CPU_ALU] |364| 
     741 00000006 06D4          MOVL      ACC,*+XAR4[2]         ; [CPU_ALU] |364| 
     742 00000007 18AB          AND       PL,#0                 ; [CPU_ALU] |364| 
         00000008 0000 
     743 00000009 18AA          AND       PH,#0                 ; [CPU_ALU] |364| 
         0000000a 0000 
     744 0000000b 9000          ANDB      AL,#0                 ; [CPU_ALU] |364| 
     745 0000000c 18A8          AND       AH,#32768             ; [CPU_ALU] |364| 
         0000000d 8000 
     746              $C$DW$67        .dwtag  DW_TAG_TI_branch
     747                      .dwattr $C$DW$67, DW_AT_low_pc(0x00)
     748                      .dwattr $C$DW$67, DW_AT_name("__c28xabi_cmpull")
     749                      .dwattr $C$DW$67, DW_AT_TI_call
     750              
     751 0000000e 7640!         LCR       #||__c28xabi_cmpull|| ; [CPU_ALU] |364| 
         0000000f 0000 
     752                      ; call occurs [#||__c28xabi_cmpull||] ; [] |364| 
     753 00000010 9B00          MOVB      AH,#0                 ; [CPU_ALU] |364| 
     754 00000011 5200          CMPB      AL,#0                 ; [CPU_ALU] |364| 
     755 00000012 56B0          MOVB      AH,#1,NEQ             ; [CPU_ALU] |364| 
         00000013 01A8 
     756 00000014 92A8          MOV       AL,AH                 ; [CPU_ALU] |364| 
     757 00000015 FE84          SUBB      SP,#4                 ; [CPU_ARAU] 
TMS320C2000 Assembler PC v22.6.1 Tue Jul  2 19:04:17 2024

Copyright (c) 1996-2018 Texas Instruments Incorporated
sfra_gui_scicomms_driverlib.asm                                      PAGE   15

     758                      .dwcfi  cfa_offset, -2
     759              $C$DW$68        .dwtag  DW_TAG_TI_branch
     760                      .dwattr $C$DW$68, DW_AT_low_pc(0x00)
     761                      .dwattr $C$DW$68, DW_AT_TI_return
     762              
     763 00000016 0006          LRETR     ; [CPU_ALU] 
     764                      ; return occurs ; [] 
     765                      .dwattr $C$DW$64, DW_AT_TI_end_file("C:/ti/ccs1260/ccs/tools/compiler/ti-cgt-c2000_22.6.1.LTS/include
     766                      .dwattr $C$DW$64, DW_AT_TI_end_line(0x16c)
     767                      .dwattr $C$DW$64, DW_AT_TI_end_column(0x2a)
     768                      .dwendentry
     769                      .dwendtag $C$DW$64
     770              
     771 00000000               .sect   ".text:__relaxed_sqrtf"
     772                      .clink
     773                      .global ||__relaxed_sqrtf||
     774              
     775              $C$DW$69        .dwtag  DW_TAG_subprogram
     776                      .dwattr $C$DW$69, DW_AT_name("__relaxed_sqrtf")
     777                      .dwattr $C$DW$69, DW_AT_low_pc(||__relaxed_sqrtf||)
     778                      .dwattr $C$DW$69, DW_AT_high_pc(0x00)
     779                      .dwattr $C$DW$69, DW_AT_linkage_name("__relaxed_sqrtf")
     780                      .dwattr $C$DW$69, DW_AT_external
     781                      .dwattr $C$DW$69, DW_AT_type(*$C$DW$T$16)
     782                      .dwattr $C$DW$69, DW_AT_decl_file("C:/ti/ccs1260/ccs/tools/compiler/ti-cgt-c2000_22.6.1.LTS/include/m
     783                      .dwattr $C$DW$69, DW_AT_decl_line(0x103)
     784                      .dwattr $C$DW$69, DW_AT_decl_column(0x10)
     785                      .dwattr $C$DW$69, DW_AT_TI_max_frame_size(-2)
     786                      .dwpsn  file "C:/ti/ccs1260/ccs/tools/compiler/ti-cgt-c2000_22.6.1.LTS/include/math.h",line 260,colum
     787              
     788                      .dwfde $C$DW$CIE, ||__relaxed_sqrtf||
     789              $C$DW$70        .dwtag  DW_TAG_formal_parameter
     790                      .dwattr $C$DW$70, DW_AT_name("x")
     791                      .dwattr $C$DW$70, DW_AT_type(*$C$DW$T$16)
     792                      .dwattr $C$DW$70, DW_AT_location[DW_OP_regx 0x2b]
     793              
     794              
     795              ;***************************************************************
     796              ;* FNAME: __relaxed_sqrtf               FR SIZE:   0           *
     797              ;*                                                             *
     798              ;* FUNCTION ENVIRONMENT                                        *
     799              ;*                                                             *
     800              ;* FUNCTION PROPERTIES                                         *
     801              ;*                            0 Parameter,  0 Auto,  0 SOE     *
     802              ;***************************************************************
     803              
     804              ||__relaxed_sqrtf||:
     805              ;* R0    assigned to x
     806              $C$DW$71        .dwtag  DW_TAG_variable
     807                      .dwattr $C$DW$71, DW_AT_name("x")
     808                      .dwattr $C$DW$71, DW_AT_type(*$C$DW$T$100)
     809                      .dwattr $C$DW$71, DW_AT_location[DW_OP_regx 0x2b]
     810              
     811                      .dwcfi  cfa_offset, -2
     812                      .dwcfi  save_reg_to_mem, 26, 0
TMS320C2000 Assembler PC v22.6.1 Tue Jul  2 19:04:17 2024

Copyright (c) 1996-2018 Texas Instruments Incorporated
sfra_gui_scicomms_driverlib.asm                                      PAGE   16

     813                      .dwpsn  file "C:/ti/ccs1260/ccs/tools/compiler/ti-cgt-c2000_22.6.1.LTS/include/math.h",line 261,colum
     814 00000000 E277          SQRTF32   R0H,R0H               ; [CPU_FPU] |261| 
         00000001 0000 
     815 00000002 7700          NOP       ; [CPU_ALU] 
     816 00000003 7700          NOP       ; [CPU_ALU] 
     817 00000004 7700          NOP       ; [CPU_ALU] 
     818              $C$DW$72        .dwtag  DW_TAG_TI_branch
     819                      .dwattr $C$DW$72, DW_AT_low_pc(0x00)
     820                      .dwattr $C$DW$72, DW_AT_TI_return
     821              
     822 00000005 0006          LRETR     ; [CPU_ALU] 
     823                      ; return occurs ; [] 
     824                      .dwattr $C$DW$69, DW_AT_TI_end_file("C:/ti/ccs1260/ccs/tools/compiler/ti-cgt-c2000_22.6.1.LTS/include
     825                      .dwattr $C$DW$69, DW_AT_TI_end_line(0x106)
     826                      .dwattr $C$DW$69, DW_AT_TI_end_column(0x01)
     827                      .dwendentry
     828                      .dwendtag $C$DW$69
     829              
     830 00000000               .sect   ".text:__relaxed_sinf"
     831                      .clink
     832                      .global ||__relaxed_sinf||
     833              
     834              $C$DW$73        .dwtag  DW_TAG_subprogram
     835                      .dwattr $C$DW$73, DW_AT_name("__relaxed_sinf")
     836                      .dwattr $C$DW$73, DW_AT_low_pc(||__relaxed_sinf||)
     837                      .dwattr $C$DW$73, DW_AT_high_pc(0x00)
     838                      .dwattr $C$DW$73, DW_AT_linkage_name("__relaxed_sinf")
     839                      .dwattr $C$DW$73, DW_AT_external
     840                      .dwattr $C$DW$73, DW_AT_type(*$C$DW$T$16)
     841                      .dwattr $C$DW$73, DW_AT_decl_file("C:/ti/ccs1260/ccs/tools/compiler/ti-cgt-c2000_22.6.1.LTS/include/m
     842                      .dwattr $C$DW$73, DW_AT_decl_line(0x108)
     843                      .dwattr $C$DW$73, DW_AT_decl_column(0x10)
     844                      .dwattr $C$DW$73, DW_AT_TI_max_frame_size(-2)
     845                      .dwpsn  file "C:/ti/ccs1260/ccs/tools/compiler/ti-cgt-c2000_22.6.1.LTS/include/math.h",line 265,colum
     846              
     847                      .dwfde $C$DW$CIE, ||__relaxed_sinf||
     848              $C$DW$74        .dwtag  DW_TAG_formal_parameter
     849                      .dwattr $C$DW$74, DW_AT_name("x")
     850                      .dwattr $C$DW$74, DW_AT_type(*$C$DW$T$16)
     851                      .dwattr $C$DW$74, DW_AT_location[DW_OP_regx 0x2b]
     852              
     853              
     854              ;***************************************************************
     855              ;* FNAME: __relaxed_sinf                FR SIZE:   0           *
     856              ;*                                                             *
     857              ;* FUNCTION ENVIRONMENT                                        *
     858              ;*                                                             *
     859              ;* FUNCTION PROPERTIES                                         *
     860              ;*                            0 Parameter,  0 Auto,  0 SOE     *
     861              ;***************************************************************
     862              
     863              ||__relaxed_sinf||:
     864              ;* R0    assigned to x
     865              $C$DW$75        .dwtag  DW_TAG_variable
     866                      .dwattr $C$DW$75, DW_AT_name("x")
TMS320C2000 Assembler PC v22.6.1 Tue Jul  2 19:04:17 2024

Copyright (c) 1996-2018 Texas Instruments Incorporated
sfra_gui_scicomms_driverlib.asm                                      PAGE   17

     867                      .dwattr $C$DW$75, DW_AT_type(*$C$DW$T$100)
     868                      .dwattr $C$DW$75, DW_AT_location[DW_OP_regx 0x2b]
     869              
     870                      .dwcfi  cfa_offset, -2
     871                      .dwcfi  save_reg_to_mem, 26, 0
     872                      .dwpsn  file "C:/ti/ccs1260/ccs/tools/compiler/ti-cgt-c2000_22.6.1.LTS/include/math.h",line 266,colum
     873 00000000 E271          DIV2PIF32 R0H,R0H               ; [CPU_FPU] |266| 
         00000001 0000 
     874 00000002 7700          NOP       ; [CPU_ALU] 
     875 00000003 E278          SINPUF32  R0H,R0H               ; [CPU_FPU] |266| 
         00000004 0000 
     876 00000005 7700          NOP       ; [CPU_ALU] 
     877 00000006 7700          NOP       ; [CPU_ALU] 
     878              $C$DW$76        .dwtag  DW_TAG_TI_branch
     879                      .dwattr $C$DW$76, DW_AT_low_pc(0x00)
     880                      .dwattr $C$DW$76, DW_AT_TI_return
     881              
     882 00000007 0006          LRETR     ; [CPU_ALU] 
     883                      ; return occurs ; [] 
     884                      .dwattr $C$DW$73, DW_AT_TI_end_file("C:/ti/ccs1260/ccs/tools/compiler/ti-cgt-c2000_22.6.1.LTS/include
     885                      .dwattr $C$DW$73, DW_AT_TI_end_line(0x10b)
     886                      .dwattr $C$DW$73, DW_AT_TI_end_column(0x01)
     887                      .dwendentry
     888                      .dwendtag $C$DW$73
     889              
     890 00000000               .sect   ".text:__relaxed_fmodf"
     891                      .clink
     892                      .global ||__relaxed_fmodf||
     893              
     894              $C$DW$77        .dwtag  DW_TAG_subprogram
     895                      .dwattr $C$DW$77, DW_AT_name("__relaxed_fmodf")
     896                      .dwattr $C$DW$77, DW_AT_low_pc(||__relaxed_fmodf||)
     897                      .dwattr $C$DW$77, DW_AT_high_pc(0x00)
     898                      .dwattr $C$DW$77, DW_AT_linkage_name("__relaxed_fmodf")
     899                      .dwattr $C$DW$77, DW_AT_external
     900                      .dwattr $C$DW$77, DW_AT_type(*$C$DW$T$16)
     901                      .dwattr $C$DW$77, DW_AT_decl_file("C:/ti/ccs1260/ccs/tools/compiler/ti-cgt-c2000_22.6.1.LTS/include/m
     902                      .dwattr $C$DW$77, DW_AT_decl_line(0x11c)
     903                      .dwattr $C$DW$77, DW_AT_decl_column(0x10)
     904                      .dwattr $C$DW$77, DW_AT_TI_max_frame_size(-2)
     905                      .dwpsn  file "C:/ti/ccs1260/ccs/tools/compiler/ti-cgt-c2000_22.6.1.LTS/include/math.h",line 285,colum
     906              
     907                      .dwfde $C$DW$CIE, ||__relaxed_fmodf||
     908              $C$DW$78        .dwtag  DW_TAG_formal_parameter
     909                      .dwattr $C$DW$78, DW_AT_name("y")
     910                      .dwattr $C$DW$78, DW_AT_type(*$C$DW$T$16)
     911                      .dwattr $C$DW$78, DW_AT_location[DW_OP_regx 0x2b]
     912              
     913              $C$DW$79        .dwtag  DW_TAG_formal_parameter
     914                      .dwattr $C$DW$79, DW_AT_name("x")
     915                      .dwattr $C$DW$79, DW_AT_type(*$C$DW$T$16)
     916                      .dwattr $C$DW$79, DW_AT_location[DW_OP_regx 0x2f]
     917              
     918              
     919              ;***************************************************************
TMS320C2000 Assembler PC v22.6.1 Tue Jul  2 19:04:17 2024

Copyright (c) 1996-2018 Texas Instruments Incorporated
sfra_gui_scicomms_driverlib.asm                                      PAGE   18

     920              ;* FNAME: __relaxed_fmodf               FR SIZE:   0           *
     921              ;*                                                             *
     922              ;* FUNCTION ENVIRONMENT                                        *
     923              ;*                                                             *
     924              ;* FUNCTION PROPERTIES                                         *
     925              ;*                            0 Parameter,  0 Auto,  0 SOE     *
     926              ;***************************************************************
     927              
     928              ||__relaxed_fmodf||:
     929              ;* R0    assigned to y
     930              $C$DW$80        .dwtag  DW_TAG_variable
     931                      .dwattr $C$DW$80, DW_AT_name("y")
     932                      .dwattr $C$DW$80, DW_AT_type(*$C$DW$T$100)
     933                      .dwattr $C$DW$80, DW_AT_location[DW_OP_regx 0x2b]
     934              
     935              ;* R1    assigned to x
     936              $C$DW$81        .dwtag  DW_TAG_variable
     937                      .dwattr $C$DW$81, DW_AT_name("x")
     938                      .dwattr $C$DW$81, DW_AT_type(*$C$DW$T$100)
     939                      .dwattr $C$DW$81, DW_AT_location[DW_OP_regx 0x2f]
     940              
     941                      .dwcfi  cfa_offset, -2
     942                      .dwcfi  save_reg_to_mem, 26, 0
     943                      .dwpsn  file "C:/ti/ccs1260/ccs/tools/compiler/ti-cgt-c2000_22.6.1.LTS/include/math.h",line 286,colum
     944 00000000 E274          DIVF32    R2H,R0H,R1H           ; [CPU_FPU] |286| 
         00000001 0042 
     945 00000002 7700          NOP       ; [CPU_ALU] 
     946 00000003 7700          NOP       ; [CPU_ALU] 
     947 00000004 7700          NOP       ; [CPU_ALU] 
     948 00000005 7700          NOP       ; [CPU_ALU] 
     949 00000006 E688          F32TOI32  R2H,R2H               ; [CPU_FPU] |286| 
         00000007 0012 
     950 00000008 7700          NOP       ; [CPU_ALU] 
     951 00000009 E689          I32TOF32  R2H,R2H               ; [CPU_FPU] |286| 
         0000000a 0012 
     952 0000000b 7700          NOP       ; [CPU_ALU] 
     953 0000000c E700          MPYF32    R1H,R1H,R2H           ; [CPU_FPU] |286| 
         0000000d 0089 
     954 0000000e 7700          NOP       ; [CPU_ALU] 
     955 0000000f E720          SUBF32    R0H,R0H,R1H           ; [CPU_FPU] |286| 
         00000010 0040 
     956              $C$DW$82        .dwtag  DW_TAG_TI_branch
     957                      .dwattr $C$DW$82, DW_AT_low_pc(0x00)
     958                      .dwattr $C$DW$82, DW_AT_TI_return
     959              
     960 00000011 0006          LRETR     ; [CPU_ALU] 
     961                      ; return occurs ; [] 
     962                      .dwattr $C$DW$77, DW_AT_TI_end_file("C:/ti/ccs1260/ccs/tools/compiler/ti-cgt-c2000_22.6.1.LTS/include
     963                      .dwattr $C$DW$77, DW_AT_TI_end_line(0x11f)
     964                      .dwattr $C$DW$77, DW_AT_TI_end_column(0x01)
     965                      .dwendentry
     966                      .dwendtag $C$DW$77
     967              
     968 00000000               .sect   ".text:__relaxed_fminf"
     969                      .clink
TMS320C2000 Assembler PC v22.6.1 Tue Jul  2 19:04:17 2024

Copyright (c) 1996-2018 Texas Instruments Incorporated
sfra_gui_scicomms_driverlib.asm                                      PAGE   19

     970                      .global ||__relaxed_fminf||
     971              
     972              $C$DW$83        .dwtag  DW_TAG_subprogram
     973                      .dwattr $C$DW$83, DW_AT_name("__relaxed_fminf")
     974                      .dwattr $C$DW$83, DW_AT_low_pc(||__relaxed_fminf||)
     975                      .dwattr $C$DW$83, DW_AT_high_pc(0x00)
     976                      .dwattr $C$DW$83, DW_AT_linkage_name("__relaxed_fminf")
     977                      .dwattr $C$DW$83, DW_AT_external
     978                      .dwattr $C$DW$83, DW_AT_type(*$C$DW$T$16)
     979                      .dwattr $C$DW$83, DW_AT_decl_file("C:/ti/ccs1260/ccs/tools/compiler/ti-cgt-c2000_22.6.1.LTS/include/m
     980                      .dwattr $C$DW$83, DW_AT_decl_line(0xee)
     981                      .dwattr $C$DW$83, DW_AT_decl_column(0x10)
     982                      .dwattr $C$DW$83, DW_AT_TI_max_frame_size(-2)
     983                      .dwpsn  file "C:/ti/ccs1260/ccs/tools/compiler/ti-cgt-c2000_22.6.1.LTS/include/math.h",line 239,colum
     984              
     985                      .dwfde $C$DW$CIE, ||__relaxed_fminf||
     986              $C$DW$84        .dwtag  DW_TAG_formal_parameter
     987                      .dwattr $C$DW$84, DW_AT_name("x")
     988                      .dwattr $C$DW$84, DW_AT_type(*$C$DW$T$16)
     989                      .dwattr $C$DW$84, DW_AT_location[DW_OP_regx 0x2b]
     990              
     991              $C$DW$85        .dwtag  DW_TAG_formal_parameter
     992                      .dwattr $C$DW$85, DW_AT_name("y")
     993                      .dwattr $C$DW$85, DW_AT_type(*$C$DW$T$16)
     994                      .dwattr $C$DW$85, DW_AT_location[DW_OP_regx 0x2f]
     995              
     996              
     997              ;***************************************************************
     998              ;* FNAME: __relaxed_fminf               FR SIZE:   0           *
     999              ;*                                                             *
    1000              ;* FUNCTION ENVIRONMENT                                        *
    1001              ;*                                                             *
    1002              ;* FUNCTION PROPERTIES                                         *
    1003              ;*                            0 Parameter,  0 Auto,  0 SOE     *
    1004              ;***************************************************************
    1005              
    1006              ||__relaxed_fminf||:
    1007              ;* R1    assigned to y
    1008              $C$DW$86        .dwtag  DW_TAG_variable
    1009                      .dwattr $C$DW$86, DW_AT_name("y")
    1010                      .dwattr $C$DW$86, DW_AT_type(*$C$DW$T$100)
    1011                      .dwattr $C$DW$86, DW_AT_location[DW_OP_regx 0x2f]
    1012              
    1013                      .dwcfi  cfa_offset, -2
    1014                      .dwcfi  save_reg_to_mem, 26, 0
    1015                      .dwpsn  file "C:/ti/ccs1260/ccs/tools/compiler/ti-cgt-c2000_22.6.1.LTS/include/math.h",line 240,colum
    1016 00000000 E697          MINF32    R0H,R1H               ; [CPU_FPU] |240| 
         00000001 0008 
    1017              $C$DW$87        .dwtag  DW_TAG_TI_branch
    1018                      .dwattr $C$DW$87, DW_AT_low_pc(0x00)
    1019                      .dwattr $C$DW$87, DW_AT_TI_return
    1020              
    1021 00000002 0006          LRETR     ; [CPU_ALU] 
    1022                      ; return occurs ; [] 
    1023                      .dwattr $C$DW$83, DW_AT_TI_end_file("C:/ti/ccs1260/ccs/tools/compiler/ti-cgt-c2000_22.6.1.LTS/include
TMS320C2000 Assembler PC v22.6.1 Tue Jul  2 19:04:17 2024

Copyright (c) 1996-2018 Texas Instruments Incorporated
sfra_gui_scicomms_driverlib.asm                                      PAGE   20

    1024                      .dwattr $C$DW$83, DW_AT_TI_end_line(0xf1)
    1025                      .dwattr $C$DW$83, DW_AT_TI_end_column(0x01)
    1026                      .dwendentry
    1027                      .dwendtag $C$DW$83
    1028              
    1029 00000000               .sect   ".text:__relaxed_fmaxf"
    1030                      .clink
    1031                      .global ||__relaxed_fmaxf||
    1032              
    1033              $C$DW$88        .dwtag  DW_TAG_subprogram
    1034                      .dwattr $C$DW$88, DW_AT_name("__relaxed_fmaxf")
    1035                      .dwattr $C$DW$88, DW_AT_low_pc(||__relaxed_fmaxf||)
    1036                      .dwattr $C$DW$88, DW_AT_high_pc(0x00)
    1037                      .dwattr $C$DW$88, DW_AT_linkage_name("__relaxed_fmaxf")
    1038                      .dwattr $C$DW$88, DW_AT_external
    1039                      .dwattr $C$DW$88, DW_AT_type(*$C$DW$T$16)
    1040                      .dwattr $C$DW$88, DW_AT_decl_file("C:/ti/ccs1260/ccs/tools/compiler/ti-cgt-c2000_22.6.1.LTS/include/m
    1041                      .dwattr $C$DW$88, DW_AT_decl_line(0xe8)
    1042                      .dwattr $C$DW$88, DW_AT_decl_column(0x10)
    1043                      .dwattr $C$DW$88, DW_AT_TI_max_frame_size(-2)
    1044                      .dwpsn  file "C:/ti/ccs1260/ccs/tools/compiler/ti-cgt-c2000_22.6.1.LTS/include/math.h",line 233,colum
    1045              
    1046                      .dwfde $C$DW$CIE, ||__relaxed_fmaxf||
    1047              $C$DW$89        .dwtag  DW_TAG_formal_parameter
    1048                      .dwattr $C$DW$89, DW_AT_name("x")
    1049                      .dwattr $C$DW$89, DW_AT_type(*$C$DW$T$16)
    1050                      .dwattr $C$DW$89, DW_AT_location[DW_OP_regx 0x2b]
    1051              
    1052              $C$DW$90        .dwtag  DW_TAG_formal_parameter
    1053                      .dwattr $C$DW$90, DW_AT_name("y")
    1054                      .dwattr $C$DW$90, DW_AT_type(*$C$DW$T$16)
    1055                      .dwattr $C$DW$90, DW_AT_location[DW_OP_regx 0x2f]
    1056              
    1057              
    1058              ;***************************************************************
    1059              ;* FNAME: __relaxed_fmaxf               FR SIZE:   0           *
    1060              ;*                                                             *
    1061              ;* FUNCTION ENVIRONMENT                                        *
    1062              ;*                                                             *
    1063              ;* FUNCTION PROPERTIES                                         *
    1064              ;*                            0 Parameter,  0 Auto,  0 SOE     *
    1065              ;***************************************************************
    1066              
    1067              ||__relaxed_fmaxf||:
    1068              ;* R1    assigned to y
    1069              $C$DW$91        .dwtag  DW_TAG_variable
    1070                      .dwattr $C$DW$91, DW_AT_name("y")
    1071                      .dwattr $C$DW$91, DW_AT_type(*$C$DW$T$100)
    1072                      .dwattr $C$DW$91, DW_AT_location[DW_OP_regx 0x2f]
    1073              
    1074                      .dwcfi  cfa_offset, -2
    1075                      .dwcfi  save_reg_to_mem, 26, 0
    1076                      .dwpsn  file "C:/ti/ccs1260/ccs/tools/compiler/ti-cgt-c2000_22.6.1.LTS/include/math.h",line 234,colum
    1077 00000000 E696          MAXF32    R0H,R1H               ; [CPU_FPU] |234| 
         00000001 0008 
TMS320C2000 Assembler PC v22.6.1 Tue Jul  2 19:04:17 2024

Copyright (c) 1996-2018 Texas Instruments Incorporated
sfra_gui_scicomms_driverlib.asm                                      PAGE   21

    1078              $C$DW$92        .dwtag  DW_TAG_TI_branch
    1079                      .dwattr $C$DW$92, DW_AT_low_pc(0x00)
    1080                      .dwattr $C$DW$92, DW_AT_TI_return
    1081              
    1082 00000002 0006          LRETR     ; [CPU_ALU] 
    1083                      ; return occurs ; [] 
    1084                      .dwattr $C$DW$88, DW_AT_TI_end_file("C:/ti/ccs1260/ccs/tools/compiler/ti-cgt-c2000_22.6.1.LTS/include
    1085                      .dwattr $C$DW$88, DW_AT_TI_end_line(0xeb)
    1086                      .dwattr $C$DW$88, DW_AT_TI_end_column(0x01)
    1087                      .dwendentry
    1088                      .dwendtag $C$DW$88
    1089              
    1090 00000000               .sect   ".text:__relaxed_cosf"
    1091                      .clink
    1092                      .global ||__relaxed_cosf||
    1093              
    1094              $C$DW$93        .dwtag  DW_TAG_subprogram
    1095                      .dwattr $C$DW$93, DW_AT_name("__relaxed_cosf")
    1096                      .dwattr $C$DW$93, DW_AT_low_pc(||__relaxed_cosf||)
    1097                      .dwattr $C$DW$93, DW_AT_high_pc(0x00)
    1098                      .dwattr $C$DW$93, DW_AT_linkage_name("__relaxed_cosf")
    1099                      .dwattr $C$DW$93, DW_AT_external
    1100                      .dwattr $C$DW$93, DW_AT_type(*$C$DW$T$16)
    1101                      .dwattr $C$DW$93, DW_AT_decl_file("C:/ti/ccs1260/ccs/tools/compiler/ti-cgt-c2000_22.6.1.LTS/include/m
    1102                      .dwattr $C$DW$93, DW_AT_decl_line(0x10d)
    1103                      .dwattr $C$DW$93, DW_AT_decl_column(0x10)
    1104                      .dwattr $C$DW$93, DW_AT_TI_max_frame_size(-2)
    1105                      .dwpsn  file "C:/ti/ccs1260/ccs/tools/compiler/ti-cgt-c2000_22.6.1.LTS/include/math.h",line 270,colum
    1106              
    1107                      .dwfde $C$DW$CIE, ||__relaxed_cosf||
    1108              $C$DW$94        .dwtag  DW_TAG_formal_parameter
    1109                      .dwattr $C$DW$94, DW_AT_name("x")
    1110                      .dwattr $C$DW$94, DW_AT_type(*$C$DW$T$16)
    1111                      .dwattr $C$DW$94, DW_AT_location[DW_OP_regx 0x2b]
    1112              
    1113              
    1114              ;***************************************************************
    1115              ;* FNAME: __relaxed_cosf                FR SIZE:   0           *
    1116              ;*                                                             *
    1117              ;* FUNCTION ENVIRONMENT                                        *
    1118              ;*                                                             *
    1119              ;* FUNCTION PROPERTIES                                         *
    1120              ;*                            0 Parameter,  0 Auto,  0 SOE     *
    1121              ;***************************************************************
    1122              
    1123              ||__relaxed_cosf||:
    1124              ;* R0    assigned to x
    1125              $C$DW$95        .dwtag  DW_TAG_variable
    1126                      .dwattr $C$DW$95, DW_AT_name("x")
    1127                      .dwattr $C$DW$95, DW_AT_type(*$C$DW$T$100)
    1128                      .dwattr $C$DW$95, DW_AT_location[DW_OP_regx 0x2b]
    1129              
    1130                      .dwcfi  cfa_offset, -2
    1131                      .dwcfi  save_reg_to_mem, 26, 0
    1132                      .dwpsn  file "C:/ti/ccs1260/ccs/tools/compiler/ti-cgt-c2000_22.6.1.LTS/include/math.h",line 271,colum
TMS320C2000 Assembler PC v22.6.1 Tue Jul  2 19:04:17 2024

Copyright (c) 1996-2018 Texas Instruments Incorporated
sfra_gui_scicomms_driverlib.asm                                      PAGE   22

    1133 00000000 E271          DIV2PIF32 R0H,R0H               ; [CPU_FPU] |271| 
         00000001 0000 
    1134 00000002 7700          NOP       ; [CPU_ALU] 
    1135 00000003 E279          COSPUF32  R0H,R0H               ; [CPU_FPU] |271| 
         00000004 0000 
    1136 00000005 7700          NOP       ; [CPU_ALU] 
    1137 00000006 7700          NOP       ; [CPU_ALU] 
    1138              $C$DW$96        .dwtag  DW_TAG_TI_branch
    1139                      .dwattr $C$DW$96, DW_AT_low_pc(0x00)
    1140                      .dwattr $C$DW$96, DW_AT_TI_return
    1141              
    1142 00000007 0006          LRETR     ; [CPU_ALU] 
    1143                      ; return occurs ; [] 
    1144                      .dwattr $C$DW$93, DW_AT_TI_end_file("C:/ti/ccs1260/ccs/tools/compiler/ti-cgt-c2000_22.6.1.LTS/include
    1145                      .dwattr $C$DW$93, DW_AT_TI_end_line(0x110)
    1146                      .dwattr $C$DW$93, DW_AT_TI_end_column(0x01)
    1147                      .dwendentry
    1148                      .dwendtag $C$DW$93
    1149              
    1150 00000000               .sect   ".text:__relaxed_atanf"
    1151                      .clink
    1152                      .global ||__relaxed_atanf||
    1153              
    1154              $C$DW$97        .dwtag  DW_TAG_subprogram
    1155                      .dwattr $C$DW$97, DW_AT_name("__relaxed_atanf")
    1156                      .dwattr $C$DW$97, DW_AT_low_pc(||__relaxed_atanf||)
    1157                      .dwattr $C$DW$97, DW_AT_high_pc(0x00)
    1158                      .dwattr $C$DW$97, DW_AT_linkage_name("__relaxed_atanf")
    1159                      .dwattr $C$DW$97, DW_AT_external
    1160                      .dwattr $C$DW$97, DW_AT_type(*$C$DW$T$16)
    1161                      .dwattr $C$DW$97, DW_AT_decl_file("C:/ti/ccs1260/ccs/tools/compiler/ti-cgt-c2000_22.6.1.LTS/include/m
    1162                      .dwattr $C$DW$97, DW_AT_decl_line(0x112)
    1163                      .dwattr $C$DW$97, DW_AT_decl_column(0x10)
    1164                      .dwattr $C$DW$97, DW_AT_TI_max_frame_size(-2)
    1165                      .dwpsn  file "C:/ti/ccs1260/ccs/tools/compiler/ti-cgt-c2000_22.6.1.LTS/include/math.h",line 275,colum
    1166              
    1167                      .dwfde $C$DW$CIE, ||__relaxed_atanf||
    1168              $C$DW$98        .dwtag  DW_TAG_formal_parameter
    1169                      .dwattr $C$DW$98, DW_AT_name("x")
    1170                      .dwattr $C$DW$98, DW_AT_type(*$C$DW$T$16)
    1171                      .dwattr $C$DW$98, DW_AT_location[DW_OP_regx 0x2b]
    1172              
    1173              
    1174              ;***************************************************************
    1175              ;* FNAME: __relaxed_atanf               FR SIZE:   0           *
    1176              ;*                                                             *
    1177              ;* FUNCTION ENVIRONMENT                                        *
    1178              ;*                                                             *
    1179              ;* FUNCTION PROPERTIES                                         *
    1180              ;*                            0 Parameter,  0 Auto,  0 SOE     *
    1181              ;***************************************************************
    1182              
    1183              ||__relaxed_atanf||:
    1184              ;* R0    assigned to x
    1185              $C$DW$99        .dwtag  DW_TAG_variable
TMS320C2000 Assembler PC v22.6.1 Tue Jul  2 19:04:17 2024

Copyright (c) 1996-2018 Texas Instruments Incorporated
sfra_gui_scicomms_driverlib.asm                                      PAGE   23

    1186                      .dwattr $C$DW$99, DW_AT_name("x")
    1187                      .dwattr $C$DW$99, DW_AT_type(*$C$DW$T$100)
    1188                      .dwattr $C$DW$99, DW_AT_location[DW_OP_regx 0x2b]
    1189              
    1190                      .dwcfi  cfa_offset, -2
    1191                      .dwcfi  save_reg_to_mem, 26, 0
    1192                      .dwpsn  file "C:/ti/ccs1260/ccs/tools/compiler/ti-cgt-c2000_22.6.1.LTS/include/math.h",line 276,colum
    1193 00000000 E801          MOVIZ     R1H,#16256            ; [CPU_FPU] |276| 
         00000001 FC01 
    1194 00000002 E27C          QUADF32   R1H,R0H,R0H,R1H       ; [CPU_FPU] |276| 
         00000003 0201 
    1195 00000004 7700          NOP       ; [CPU_ALU] 
    1196 00000005 7700          NOP       ; [CPU_ALU] 
    1197 00000006 7700          NOP       ; [CPU_ALU] 
    1198 00000007 7700          NOP       ; [CPU_ALU] 
    1199 00000008 E27A          ATANPUF32 R0H,R0H               ; [CPU_FPU] |276| 
         00000009 0000 
    1200 0000000a 7700          NOP       ; [CPU_ALU] 
    1201 0000000b 7700          NOP       ; [CPU_ALU] 
    1202 0000000c 7700          NOP       ; [CPU_ALU] 
    1203 0000000d E710          ADDF32    R0H,R0H,R1H           ; [CPU_FPU] |276| 
         0000000e 0040 
    1204 0000000f 7700          NOP       ; [CPU_ALU] 
    1205 00000010 7700          NOP       ; [CPU_ALU] 
    1206 00000011 E270          MPY2PIF32 R0H,R0H               ; [CPU_FPU] |276| 
         00000012 0000 
    1207 00000013 7700          NOP       ; [CPU_ALU] 
    1208              $C$DW$100       .dwtag  DW_TAG_TI_branch
    1209                      .dwattr $C$DW$100, DW_AT_low_pc(0x00)
    1210                      .dwattr $C$DW$100, DW_AT_TI_return
    1211              
    1212 00000014 0006          LRETR     ; [CPU_ALU] 
    1213                      ; return occurs ; [] 
    1214                      .dwattr $C$DW$97, DW_AT_TI_end_file("C:/ti/ccs1260/ccs/tools/compiler/ti-cgt-c2000_22.6.1.LTS/include
    1215                      .dwattr $C$DW$97, DW_AT_TI_end_line(0x115)
    1216                      .dwattr $C$DW$97, DW_AT_TI_end_column(0x01)
    1217                      .dwendentry
    1218                      .dwendtag $C$DW$97
    1219              
    1220 00000000               .sect   ".text:__relaxed_atan2f"
    1221                      .clink
    1222                      .global ||__relaxed_atan2f||
    1223              
    1224              $C$DW$101       .dwtag  DW_TAG_subprogram
    1225                      .dwattr $C$DW$101, DW_AT_name("__relaxed_atan2f")
    1226                      .dwattr $C$DW$101, DW_AT_low_pc(||__relaxed_atan2f||)
    1227                      .dwattr $C$DW$101, DW_AT_high_pc(0x00)
    1228                      .dwattr $C$DW$101, DW_AT_linkage_name("__relaxed_atan2f")
    1229                      .dwattr $C$DW$101, DW_AT_external
    1230                      .dwattr $C$DW$101, DW_AT_type(*$C$DW$T$16)
    1231                      .dwattr $C$DW$101, DW_AT_decl_file("C:/ti/ccs1260/ccs/tools/compiler/ti-cgt-c2000_22.6.1.LTS/include/
    1232                      .dwattr $C$DW$101, DW_AT_decl_line(0x117)
    1233                      .dwattr $C$DW$101, DW_AT_decl_column(0x10)
    1234                      .dwattr $C$DW$101, DW_AT_TI_max_frame_size(-2)
    1235                      .dwpsn  file "C:/ti/ccs1260/ccs/tools/compiler/ti-cgt-c2000_22.6.1.LTS/include/math.h",line 280,colum
TMS320C2000 Assembler PC v22.6.1 Tue Jul  2 19:04:17 2024

Copyright (c) 1996-2018 Texas Instruments Incorporated
sfra_gui_scicomms_driverlib.asm                                      PAGE   24

    1236              
    1237                      .dwfde $C$DW$CIE, ||__relaxed_atan2f||
    1238              $C$DW$102       .dwtag  DW_TAG_formal_parameter
    1239                      .dwattr $C$DW$102, DW_AT_name("y")
    1240                      .dwattr $C$DW$102, DW_AT_type(*$C$DW$T$16)
    1241                      .dwattr $C$DW$102, DW_AT_location[DW_OP_regx 0x2b]
    1242              
    1243              $C$DW$103       .dwtag  DW_TAG_formal_parameter
    1244                      .dwattr $C$DW$103, DW_AT_name("x")
    1245                      .dwattr $C$DW$103, DW_AT_type(*$C$DW$T$16)
    1246                      .dwattr $C$DW$103, DW_AT_location[DW_OP_regx 0x2f]
    1247              
    1248              
    1249              ;***************************************************************
    1250              ;* FNAME: __relaxed_atan2f              FR SIZE:   0           *
    1251              ;*                                                             *
    1252              ;* FUNCTION ENVIRONMENT                                        *
    1253              ;*                                                             *
    1254              ;* FUNCTION PROPERTIES                                         *
    1255              ;*                            0 Parameter,  0 Auto,  0 SOE     *
    1256              ;***************************************************************
    1257              
    1258              ||__relaxed_atan2f||:
    1259              ;* R0    assigned to y
    1260              $C$DW$104       .dwtag  DW_TAG_variable
    1261                      .dwattr $C$DW$104, DW_AT_name("y")
    1262                      .dwattr $C$DW$104, DW_AT_type(*$C$DW$T$100)
    1263                      .dwattr $C$DW$104, DW_AT_location[DW_OP_regx 0x2b]
    1264              
    1265              ;* R1    assigned to x
    1266              $C$DW$105       .dwtag  DW_TAG_variable
    1267                      .dwattr $C$DW$105, DW_AT_name("x")
    1268                      .dwattr $C$DW$105, DW_AT_type(*$C$DW$T$100)
    1269                      .dwattr $C$DW$105, DW_AT_location[DW_OP_regx 0x2f]
    1270              
    1271                      .dwcfi  cfa_offset, -2
    1272                      .dwcfi  save_reg_to_mem, 26, 0
    1273                      .dwpsn  file "C:/ti/ccs1260/ccs/tools/compiler/ti-cgt-c2000_22.6.1.LTS/include/math.h",line 281,colum
    1274 00000000 E27C          QUADF32   R1H,R0H,R0H,R1H       ; [CPU_FPU] |281| 
         00000001 0201 
    1275 00000002 7700          NOP       ; [CPU_ALU] 
    1276 00000003 7700          NOP       ; [CPU_ALU] 
    1277 00000004 7700          NOP       ; [CPU_ALU] 
    1278 00000005 7700          NOP       ; [CPU_ALU] 
    1279 00000006 E27A          ATANPUF32 R0H,R0H               ; [CPU_FPU] |281| 
         00000007 0000 
    1280 00000008 7700          NOP       ; [CPU_ALU] 
    1281 00000009 7700          NOP       ; [CPU_ALU] 
    1282 0000000a 7700          NOP       ; [CPU_ALU] 
    1283 0000000b E710          ADDF32    R0H,R0H,R1H           ; [CPU_FPU] |281| 
         0000000c 0040 
    1284 0000000d 7700          NOP       ; [CPU_ALU] 
    1285 0000000e 7700          NOP       ; [CPU_ALU] 
    1286 0000000f E270          MPY2PIF32 R0H,R0H               ; [CPU_FPU] |281| 
         00000010 0000 
TMS320C2000 Assembler PC v22.6.1 Tue Jul  2 19:04:17 2024

Copyright (c) 1996-2018 Texas Instruments Incorporated
sfra_gui_scicomms_driverlib.asm                                      PAGE   25

    1287 00000011 7700          NOP       ; [CPU_ALU] 
    1288              $C$DW$106       .dwtag  DW_TAG_TI_branch
    1289                      .dwattr $C$DW$106, DW_AT_low_pc(0x00)
    1290                      .dwattr $C$DW$106, DW_AT_TI_return
    1291              
    1292 00000012 0006          LRETR     ; [CPU_ALU] 
    1293                      ; return occurs ; [] 
    1294                      .dwattr $C$DW$101, DW_AT_TI_end_file("C:/ti/ccs1260/ccs/tools/compiler/ti-cgt-c2000_22.6.1.LTS/includ
    1295                      .dwattr $C$DW$101, DW_AT_TI_end_line(0x11a)
    1296                      .dwattr $C$DW$101, DW_AT_TI_end_column(0x01)
    1297                      .dwendentry
    1298                      .dwendtag $C$DW$101
    1299              
    1300 00000000               .sect   ".text:__isnormall"
    1301                      .clink
    1302                      .global ||__isnormall||
    1303              
    1304              $C$DW$107       .dwtag  DW_TAG_subprogram
    1305                      .dwattr $C$DW$107, DW_AT_name("__isnormall")
    1306                      .dwattr $C$DW$107, DW_AT_low_pc(||__isnormall||)
    1307                      .dwattr $C$DW$107, DW_AT_high_pc(0x00)
    1308                      .dwattr $C$DW$107, DW_AT_linkage_name("__isnormall")
    1309                      .dwattr $C$DW$107, DW_AT_external
    1310                      .dwattr $C$DW$107, DW_AT_type(*$C$DW$T$10)
    1311                      .dwattr $C$DW$107, DW_AT_decl_file("C:/ti/ccs1260/ccs/tools/compiler/ti-cgt-c2000_22.6.1.LTS/include/
    1312                      .dwattr $C$DW$107, DW_AT_decl_line(0x167)
    1313                      .dwattr $C$DW$107, DW_AT_decl_column(0x18)
    1314                      .dwattr $C$DW$107, DW_AT_TI_max_frame_size(-6)
    1315                      .dwpsn  file "C:/ti/ccs1260/ccs/tools/compiler/ti-cgt-c2000_22.6.1.LTS/include/_defs.h",line 360,colu
    1316              
    1317                      .dwfde $C$DW$CIE, ||__isnormall||
    1318              $C$DW$108       .dwtag  DW_TAG_formal_parameter
    1319                      .dwattr $C$DW$108, DW_AT_name("e")
    1320                      .dwattr $C$DW$108, DW_AT_type(*$C$DW$T$103)
    1321                      .dwattr $C$DW$108, DW_AT_location[DW_OP_reg12]
    1322              
    1323              
    1324              ;***************************************************************
    1325              ;* FNAME: __isnormall                   FR SIZE:   4           *
    1326              ;*                                                             *
    1327              ;* FUNCTION ENVIRONMENT                                        *
    1328              ;*                                                             *
    1329              ;* FUNCTION PROPERTIES                                         *
    1330              ;*                            4 Parameter,  0 Auto,  0 SOE     *
    1331              ;***************************************************************
    1332              
    1333              ||__isnormall||:
    1334              ;* AR5   assigned to $O$C2
    1335              ;* AR6   assigned to $O$S1
    1336              ;* AR4   assigned to e
    1337              $C$DW$109       .dwtag  DW_TAG_variable
    1338                      .dwattr $C$DW$109, DW_AT_name("e")
    1339                      .dwattr $C$DW$109, DW_AT_type(*$C$DW$T$104)
    1340                      .dwattr $C$DW$109, DW_AT_location[DW_OP_reg12]
    1341              
TMS320C2000 Assembler PC v22.6.1 Tue Jul  2 19:04:17 2024

Copyright (c) 1996-2018 Texas Instruments Incorporated
sfra_gui_scicomms_driverlib.asm                                      PAGE   26

    1342                      .dwcfi  cfa_offset, -2
    1343                      .dwcfi  save_reg_to_mem, 26, 0
    1344 00000000 FE04          ADDB      SP,#4                 ; [CPU_ARAU] 
    1345                      .dwcfi  cfa_offset, -6
    1346                      .dwpsn  file "C:/ti/ccs1260/ccs/tools/compiler/ti-cgt-c2000_22.6.1.LTS/include/_defs.h",line 360,colu
    1347 00000001 83C4          MOVL      XAR5,*+XAR4[0]        ; [CPU_ALU] |360| 
    1348 00000002 8AD4          MOVL      XAR4,*+XAR4[2]        ; [CPU_ALU] |360| 
    1349 00000003 BE00          MOVB      XAR6,#0               ; [CPU_ALU] |360| 
    1350 00000004 28AC          MOV       T,#52                 ; [CPU_ALU] |360| 
         00000005 0034 
    1351 00000006 A0AB          MOVL      P,XAR5                ; [CPU_ALU] |360| 
    1352 00000007 A8A9          MOVL      ACC,XAR4              ; [CPU_ALU] |360| 
    1353 00000008 C244          MOVL      *-SP[4],XAR6          ; [CPU_ALU] |360| 
    1354 00000009 2B42          MOV       *-SP[2],#0            ; [CPU_ALU] |360| 
    1355 0000000a 565B          LSR64     ACC:P,T               ; [CPU_ALU] |360| 
    1356 0000000b 2B41          MOV       *-SP[1],#0            ; [CPU_FPU] |360| 
    1357 0000000c 9000          ANDB      AL,#0                 ; [CPU_ALU] |360| 
    1358 0000000d 9100          ANDB      AH,#0                 ; [CPU_ALU] |360| 
    1359 0000000e 18AB          AND       PL,#2047              ; [CPU_ALU] |360| 
         0000000f 07FF 
    1360 00000010 18AA          AND       PH,#0                 ; [CPU_ALU] |360| 
         00000011 0000 
    1361              $C$DW$110       .dwtag  DW_TAG_TI_branch
    1362                      .dwattr $C$DW$110, DW_AT_low_pc(0x00)
    1363                      .dwattr $C$DW$110, DW_AT_name("__c28xabi_cmpull")
    1364                      .dwattr $C$DW$110, DW_AT_TI_call
    1365              
    1366 00000012 7640!         LCR       #||__c28xabi_cmpull|| ; [CPU_ALU] |360| 
         00000013 0000 
    1367                      ; call occurs [#||__c28xabi_cmpull||] ; [] |360| 
    1368 00000014 BE00          MOVB      XAR6,#0               ; [CPU_ALU] |360| 
    1369 00000015 5200          CMPB      AL,#0                 ; [CPU_ALU] |360| 
    1370 00000016 610E          B         ||$C$L1||,EQ          ; [CPU_ALU] |360| 
    1371                      ; branchcc occurs ; [] |360| 
    1372 00000017 A0AB          MOVL      P,XAR5                ; [CPU_ALU] |360| 
    1373 00000018 A8A9          MOVL      ACC,XAR4              ; [CPU_ALU] |360| 
    1374 00000019 28AC          MOV       T,#48                 ; [CPU_ALU] |360| 
         0000001a 0030 
    1375 0000001b 565B          LSR64     ACC:P,T               ; [CPU_ALU] |360| 
    1376 0000001c 18AB          AND       PL,#0x7ff0            ; [CPU_ALU] |360| 
         0000001d 7FF0 
    1377 0000001e 80AB          MOVZ      AR7,PL                ; [CPU_ALU] |360| 
    1378 0000001f FF20          MOV       ACC,#32752            ; [CPU_ALU] |360| 
         00000020 7FF0 
    1379 00000021 0FA7          CMPL      ACC,XAR7              ; [CPU_ALU] |360| 
    1380 00000022 56B0          MOVB      XAR6,#1,NEQ           ; [CPU_ALU] |360| 
         00000023 01A6 
    1381 00000024       ||$C$L1||:    
    1382 00000024 FE84          SUBB      SP,#4                 ; [CPU_ARAU] 
    1383                      .dwcfi  cfa_offset, -2
    1384 00000025 92A6          MOV       AL,AR6                ; [CPU_ALU] |360| 
    1385              $C$DW$111       .dwtag  DW_TAG_TI_branch
    1386                      .dwattr $C$DW$111, DW_AT_low_pc(0x00)
    1387                      .dwattr $C$DW$111, DW_AT_TI_return
    1388              
TMS320C2000 Assembler PC v22.6.1 Tue Jul  2 19:04:17 2024

Copyright (c) 1996-2018 Texas Instruments Incorporated
sfra_gui_scicomms_driverlib.asm                                      PAGE   27

    1389 00000026 0006          LRETR     ; [CPU_ALU] 
    1390                      ; return occurs ; [] 
    1391                      .dwattr $C$DW$107, DW_AT_TI_end_file("C:/ti/ccs1260/ccs/tools/compiler/ti-cgt-c2000_22.6.1.LTS/includ
    1392                      .dwattr $C$DW$107, DW_AT_TI_end_line(0x169)
    1393                      .dwattr $C$DW$107, DW_AT_TI_end_column(0x31)
    1394                      .dwendentry
    1395                      .dwendtag $C$DW$107
    1396              
    1397 00000000               .sect   ".text:__isnormalf"
    1398                      .clink
    1399                      .global ||__isnormalf||
    1400              
    1401              $C$DW$112       .dwtag  DW_TAG_subprogram
    1402                      .dwattr $C$DW$112, DW_AT_name("__isnormalf")
    1403                      .dwattr $C$DW$112, DW_AT_low_pc(||__isnormalf||)
    1404                      .dwattr $C$DW$112, DW_AT_high_pc(0x00)
    1405                      .dwattr $C$DW$112, DW_AT_linkage_name("__isnormalf")
    1406                      .dwattr $C$DW$112, DW_AT_external
    1407                      .dwattr $C$DW$112, DW_AT_type(*$C$DW$T$10)
    1408                      .dwattr $C$DW$112, DW_AT_decl_file("C:/ti/ccs1260/ccs/tools/compiler/ti-cgt-c2000_22.6.1.LTS/include/
    1409                      .dwattr $C$DW$112, DW_AT_decl_line(0x163)
    1410                      .dwattr $C$DW$112, DW_AT_decl_column(0x18)
    1411                      .dwattr $C$DW$112, DW_AT_TI_max_frame_size(-2)
    1412                      .dwpsn  file "C:/ti/ccs1260/ccs/tools/compiler/ti-cgt-c2000_22.6.1.LTS/include/_defs.h",line 356,colu
    1413              
    1414                      .dwfde $C$DW$CIE, ||__isnormalf||
    1415              $C$DW$113       .dwtag  DW_TAG_formal_parameter
    1416                      .dwattr $C$DW$113, DW_AT_name("f")
    1417                      .dwattr $C$DW$113, DW_AT_type(*$C$DW$T$16)
    1418                      .dwattr $C$DW$113, DW_AT_location[DW_OP_regx 0x2b]
    1419              
    1420              
    1421              ;***************************************************************
    1422              ;* FNAME: __isnormalf                   FR SIZE:   0           *
    1423              ;*                                                             *
    1424              ;* FUNCTION ENVIRONMENT                                        *
    1425              ;*                                                             *
    1426              ;* FUNCTION PROPERTIES                                         *
    1427              ;*                            0 Parameter,  0 Auto,  0 SOE     *
    1428              ;***************************************************************
    1429              
    1430              ||__isnormalf||:
    1431              ;* PL    assigned to $O$K3
    1432              ;* AR6   assigned to $O$S1
    1433              ;* R0    assigned to f
    1434              $C$DW$114       .dwtag  DW_TAG_variable
    1435                      .dwattr $C$DW$114, DW_AT_name("f")
    1436                      .dwattr $C$DW$114, DW_AT_type(*$C$DW$T$100)
    1437                      .dwattr $C$DW$114, DW_AT_location[DW_OP_regx 0x2b]
    1438              
    1439                      .dwcfi  cfa_offset, -2
    1440                      .dwcfi  save_reg_to_mem, 26, 0
    1441                      .dwpsn  file "C:/ti/ccs1260/ccs/tools/compiler/ti-cgt-c2000_22.6.1.LTS/include/_defs.h",line 356,colu
    1442 00000000 BFAB          MOV32     P,R0H                 ; [CPU_FPU] |356| 
         00000001 0F12 
TMS320C2000 Assembler PC v22.6.1 Tue Jul  2 19:04:17 2024

Copyright (c) 1996-2018 Texas Instruments Incorporated
sfra_gui_scicomms_driverlib.asm                                      PAGE   28

    1443 00000002 28AC          MOV       T,#23                 ; [CPU_ALU] |356| 
         00000003 0017 
    1444 00000004 A9A9          MOVL      ACC,P                 ; [CPU_ALU] |356| 
    1445 00000005 BE00          MOVB      XAR6,#0               ; [CPU_ALU] |356| 
    1446 00000006 5622          LSRL      ACC,T                 ; [CPU_ALU] |356| 
    1447 00000007 90FF          ANDB      AL,#0xff              ; [CPU_ALU] |356| 
    1448 00000008 6109          B         ||$C$L2||,EQ          ; [CPU_ALU] |356| 
    1449                      ; branchcc occurs ; [] |356| 
    1450 00000009 CCAA          AND       AL,PH,#0x7f80         ; [CPU_ALU] |356| 
         0000000a 7F80 
    1451 0000000b 80A9          MOVZ      AR7,AL                ; [CPU_ALU] |356| 
    1452 0000000c FF20          MOV       ACC,#32640            ; [CPU_ALU] |356| 
         0000000d 7F80 
    1453 0000000e 0FA7          CMPL      ACC,XAR7              ; [CPU_ALU] |356| 
    1454 0000000f 56B0          MOVB      XAR6,#1,NEQ           ; [CPU_ALU] |356| 
         00000010 01A6 
    1455 00000011       ||$C$L2||:    
    1456 00000011 92A6          MOV       AL,AR6                ; [CPU_ALU] |356| 
    1457              $C$DW$115       .dwtag  DW_TAG_TI_branch
    1458                      .dwattr $C$DW$115, DW_AT_low_pc(0x00)
    1459                      .dwattr $C$DW$115, DW_AT_TI_return
    1460              
    1461 00000012 0006          LRETR     ; [CPU_ALU] 
    1462                      ; return occurs ; [] 
    1463                      .dwattr $C$DW$112, DW_AT_TI_end_file("C:/ti/ccs1260/ccs/tools/compiler/ti-cgt-c2000_22.6.1.LTS/includ
    1464                      .dwattr $C$DW$112, DW_AT_TI_end_line(0x165)
    1465                      .dwattr $C$DW$112, DW_AT_TI_end_column(0x2f)
    1466                      .dwendentry
    1467                      .dwendtag $C$DW$112
    1468              
    1469 00000000               .sect   ".text:__isnormal"
    1470                      .clink
    1471                      .global ||__isnormal||
    1472              
    1473              $C$DW$116       .dwtag  DW_TAG_subprogram
    1474                      .dwattr $C$DW$116, DW_AT_name("__isnormal")
    1475                      .dwattr $C$DW$116, DW_AT_low_pc(||__isnormal||)
    1476                      .dwattr $C$DW$116, DW_AT_high_pc(0x00)
    1477                      .dwattr $C$DW$116, DW_AT_linkage_name("__isnormal")
    1478                      .dwattr $C$DW$116, DW_AT_external
    1479                      .dwattr $C$DW$116, DW_AT_type(*$C$DW$T$10)
    1480                      .dwattr $C$DW$116, DW_AT_decl_file("C:/ti/ccs1260/ccs/tools/compiler/ti-cgt-c2000_22.6.1.LTS/include/
    1481                      .dwattr $C$DW$116, DW_AT_decl_line(0x15f)
    1482                      .dwattr $C$DW$116, DW_AT_decl_column(0x18)
    1483                      .dwattr $C$DW$116, DW_AT_TI_max_frame_size(-6)
    1484                      .dwpsn  file "C:/ti/ccs1260/ccs/tools/compiler/ti-cgt-c2000_22.6.1.LTS/include/_defs.h",line 352,colu
    1485              
    1486                      .dwfde $C$DW$CIE, ||__isnormal||
    1487              $C$DW$117       .dwtag  DW_TAG_formal_parameter
    1488                      .dwattr $C$DW$117, DW_AT_name("d")
    1489                      .dwattr $C$DW$117, DW_AT_type(*$C$DW$T$101)
    1490                      .dwattr $C$DW$117, DW_AT_location[DW_OP_reg12]
    1491              
    1492              
    1493              ;***************************************************************
TMS320C2000 Assembler PC v22.6.1 Tue Jul  2 19:04:17 2024

Copyright (c) 1996-2018 Texas Instruments Incorporated
sfra_gui_scicomms_driverlib.asm                                      PAGE   29

    1494              ;* FNAME: __isnormal                    FR SIZE:   4           *
    1495              ;*                                                             *
    1496              ;* FUNCTION ENVIRONMENT                                        *
    1497              ;*                                                             *
    1498              ;* FUNCTION PROPERTIES                                         *
    1499              ;*                            4 Parameter,  0 Auto,  0 SOE     *
    1500              ;***************************************************************
    1501              
    1502              ||__isnormal||:
    1503              ;* AR5   assigned to $O$C2
    1504              ;* AR6   assigned to $O$S1
    1505              ;* AR4   assigned to d
    1506              $C$DW$118       .dwtag  DW_TAG_variable
    1507                      .dwattr $C$DW$118, DW_AT_name("d")
    1508                      .dwattr $C$DW$118, DW_AT_type(*$C$DW$T$102)
    1509                      .dwattr $C$DW$118, DW_AT_location[DW_OP_reg12]
    1510              
    1511                      .dwcfi  cfa_offset, -2
    1512                      .dwcfi  save_reg_to_mem, 26, 0
    1513 00000000 FE04          ADDB      SP,#4                 ; [CPU_ARAU] 
    1514                      .dwcfi  cfa_offset, -6
    1515                      .dwpsn  file "C:/ti/ccs1260/ccs/tools/compiler/ti-cgt-c2000_22.6.1.LTS/include/_defs.h",line 352,colu
    1516 00000001 83C4          MOVL      XAR5,*+XAR4[0]        ; [CPU_ALU] |352| 
    1517 00000002 8AD4          MOVL      XAR4,*+XAR4[2]        ; [CPU_ALU] |352| 
    1518 00000003 BE00          MOVB      XAR6,#0               ; [CPU_ALU] |352| 
    1519 00000004 28AC          MOV       T,#52                 ; [CPU_ALU] |352| 
         00000005 0034 
    1520 00000006 A0AB          MOVL      P,XAR5                ; [CPU_ALU] |352| 
    1521 00000007 A8A9          MOVL      ACC,XAR4              ; [CPU_ALU] |352| 
    1522 00000008 C244          MOVL      *-SP[4],XAR6          ; [CPU_ALU] |352| 
    1523 00000009 2B42          MOV       *-SP[2],#0            ; [CPU_ALU] |352| 
    1524 0000000a 565B          LSR64     ACC:P,T               ; [CPU_ALU] |352| 
    1525 0000000b 2B41          MOV       *-SP[1],#0            ; [CPU_FPU] |352| 
    1526 0000000c 9000          ANDB      AL,#0                 ; [CPU_ALU] |352| 
    1527 0000000d 9100          ANDB      AH,#0                 ; [CPU_ALU] |352| 
    1528 0000000e 18AB          AND       PL,#2047              ; [CPU_ALU] |352| 
         0000000f 07FF 
    1529 00000010 18AA          AND       PH,#0                 ; [CPU_ALU] |352| 
         00000011 0000 
    1530              $C$DW$119       .dwtag  DW_TAG_TI_branch
    1531                      .dwattr $C$DW$119, DW_AT_low_pc(0x00)
    1532                      .dwattr $C$DW$119, DW_AT_name("__c28xabi_cmpull")
    1533                      .dwattr $C$DW$119, DW_AT_TI_call
    1534              
    1535 00000012 7640!         LCR       #||__c28xabi_cmpull|| ; [CPU_ALU] |352| 
         00000013 0000 
    1536                      ; call occurs [#||__c28xabi_cmpull||] ; [] |352| 
    1537 00000014 BE00          MOVB      XAR6,#0               ; [CPU_ALU] |352| 
    1538 00000015 5200          CMPB      AL,#0                 ; [CPU_ALU] |352| 
    1539 00000016 610E          B         ||$C$L3||,EQ          ; [CPU_ALU] |352| 
    1540                      ; branchcc occurs ; [] |352| 
    1541 00000017 A0AB          MOVL      P,XAR5                ; [CPU_ALU] |352| 
    1542 00000018 A8A9          MOVL      ACC,XAR4              ; [CPU_ALU] |352| 
    1543 00000019 28AC          MOV       T,#48                 ; [CPU_ALU] |352| 
         0000001a 0030 
TMS320C2000 Assembler PC v22.6.1 Tue Jul  2 19:04:17 2024

Copyright (c) 1996-2018 Texas Instruments Incorporated
sfra_gui_scicomms_driverlib.asm                                      PAGE   30

    1544 0000001b 565B          LSR64     ACC:P,T               ; [CPU_ALU] |352| 
    1545 0000001c 18AB          AND       PL,#0x7ff0            ; [CPU_ALU] |352| 
         0000001d 7FF0 
    1546 0000001e 80AB          MOVZ      AR7,PL                ; [CPU_ALU] |352| 
    1547 0000001f FF20          MOV       ACC,#32752            ; [CPU_ALU] |352| 
         00000020 7FF0 
    1548 00000021 0FA7          CMPL      ACC,XAR7              ; [CPU_ALU] |352| 
    1549 00000022 56B0          MOVB      XAR6,#1,NEQ           ; [CPU_ALU] |352| 
         00000023 01A6 
    1550 00000024       ||$C$L3||:    
    1551 00000024 FE84          SUBB      SP,#4                 ; [CPU_ARAU] 
    1552                      .dwcfi  cfa_offset, -2
    1553 00000025 92A6          MOV       AL,AR6                ; [CPU_ALU] |352| 
    1554              $C$DW$120       .dwtag  DW_TAG_TI_branch
    1555                      .dwattr $C$DW$120, DW_AT_low_pc(0x00)
    1556                      .dwattr $C$DW$120, DW_AT_TI_return
    1557              
    1558 00000026 0006          LRETR     ; [CPU_ALU] 
    1559                      ; return occurs ; [] 
    1560                      .dwattr $C$DW$116, DW_AT_TI_end_file("C:/ti/ccs1260/ccs/tools/compiler/ti-cgt-c2000_22.6.1.LTS/includ
    1561                      .dwattr $C$DW$116, DW_AT_TI_end_line(0x161)
    1562                      .dwattr $C$DW$116, DW_AT_TI_end_column(0x30)
    1563                      .dwendentry
    1564                      .dwendtag $C$DW$116
    1565              
    1566 00000000               .sect   ".text:__isnanl"
    1567                      .clink
    1568                      .global ||__isnanl||
    1569              
    1570              $C$DW$121       .dwtag  DW_TAG_subprogram
    1571                      .dwattr $C$DW$121, DW_AT_name("__isnanl")
    1572                      .dwattr $C$DW$121, DW_AT_low_pc(||__isnanl||)
    1573                      .dwattr $C$DW$121, DW_AT_high_pc(0x00)
    1574                      .dwattr $C$DW$121, DW_AT_linkage_name("__isnanl")
    1575                      .dwattr $C$DW$121, DW_AT_external
    1576                      .dwattr $C$DW$121, DW_AT_type(*$C$DW$T$10)
    1577                      .dwattr $C$DW$121, DW_AT_decl_file("C:/ti/ccs1260/ccs/tools/compiler/ti-cgt-c2000_22.6.1.LTS/include/
    1578                      .dwattr $C$DW$121, DW_AT_decl_line(0x15b)
    1579                      .dwattr $C$DW$121, DW_AT_decl_column(0x18)
    1580                      .dwattr $C$DW$121, DW_AT_TI_max_frame_size(-6)
    1581                      .dwpsn  file "C:/ti/ccs1260/ccs/tools/compiler/ti-cgt-c2000_22.6.1.LTS/include/_defs.h",line 348,colu
    1582              
    1583                      .dwfde $C$DW$CIE, ||__isnanl||
    1584              $C$DW$122       .dwtag  DW_TAG_formal_parameter
    1585                      .dwattr $C$DW$122, DW_AT_name("e")
    1586                      .dwattr $C$DW$122, DW_AT_type(*$C$DW$T$103)
    1587                      .dwattr $C$DW$122, DW_AT_location[DW_OP_reg12]
    1588              
    1589              
    1590              ;***************************************************************
    1591              ;* FNAME: __isnanl                      FR SIZE:   4           *
    1592              ;*                                                             *
    1593              ;* FUNCTION ENVIRONMENT                                        *
    1594              ;*                                                             *
    1595              ;* FUNCTION PROPERTIES                                         *
TMS320C2000 Assembler PC v22.6.1 Tue Jul  2 19:04:17 2024

Copyright (c) 1996-2018 Texas Instruments Incorporated
sfra_gui_scicomms_driverlib.asm                                      PAGE   31

    1596              ;*                            4 Parameter,  0 Auto,  0 SOE     *
    1597              ;***************************************************************
    1598              
    1599              ||__isnanl||:
    1600              ;* AR7   assigned to $O$C2
    1601              ;* AR4   assigned to $O$S1
    1602              ;* AR4   assigned to e
    1603              $C$DW$123       .dwtag  DW_TAG_variable
    1604                      .dwattr $C$DW$123, DW_AT_name("e")
    1605                      .dwattr $C$DW$123, DW_AT_type(*$C$DW$T$104)
    1606                      .dwattr $C$DW$123, DW_AT_location[DW_OP_reg12]
    1607              
    1608                      .dwcfi  cfa_offset, -2
    1609                      .dwcfi  save_reg_to_mem, 26, 0
    1610 00000000 FE04          ADDB      SP,#4                 ; [CPU_ARAU] 
    1611                      .dwcfi  cfa_offset, -6
    1612                      .dwpsn  file "C:/ti/ccs1260/ccs/tools/compiler/ti-cgt-c2000_22.6.1.LTS/include/_defs.h",line 348,colu
    1613 00000001 C5C4          MOVL      XAR7,*+XAR4[0]        ; [CPU_ALU] |348| 
    1614 00000002 06D4          MOVL      ACC,*+XAR4[2]         ; [CPU_ALU] |348| 
    1615 00000003 28AC          MOV       T,#48                 ; [CPU_ALU] |348| 
         00000004 0030 
    1616 00000005 1EA6          MOVL      XAR6,ACC              ; [CPU_ALU] |348| 
    1617 00000006 A3A7          MOVL      P,XAR7                ; [CPU_ALU] |348| 
    1618 00000007 D400          MOVB      XAR4,#0               ; [CPU_ALU] |348| 
    1619 00000008 565B          LSR64     ACC:P,T               ; [CPU_ALU] |348| 
    1620 00000009 2BAA          MOV       PH,#0                 ; [CPU_ALU] |348| 
    1621 0000000a 18AB          AND       PL,#0x7ff0            ; [CPU_ALU] |348| 
         0000000b 7FF0 
    1622 0000000c FF20          MOV       ACC,#32752            ; [CPU_ALU] |348| 
         0000000d 7FF0 
    1623 0000000e 0FAB          CMPL      ACC,P                 ; [CPU_ALU] |348| 
    1624 0000000f 6013          B         ||$C$L4||,NEQ         ; [CPU_ALU] |348| 
    1625                      ; branchcc occurs ; [] |348| 
    1626 00000010 06A6          MOVL      ACC,XAR6              ; [CPU_ALU] |348| 
    1627 00000011 A3A7          MOVL      P,XAR7                ; [CPU_ALU] |348| 
    1628 00000012 BE00          MOVB      XAR6,#0               ; [CPU_ALU] |348| 
    1629 00000013 18A9          AND       AL,#65535             ; [CPU_ALU] |348| 
         00000014 FFFF 
    1630 00000015 910F          ANDB      AH,#15                ; [CPU_ALU] |348| 
    1631 00000016 18AB          AND       PL,#65535             ; [CPU_ALU] |348| 
         00000017 FFFF 
    1632 00000018 18AA          AND       PH,#65535             ; [CPU_ALU] |348| 
         00000019 FFFF 
    1633 0000001a C244          MOVL      *-SP[4],XAR6          ; [CPU_FPU] |348| 
    1634 0000001b 2B42          MOV       *-SP[2],#0            ; [CPU_FPU] |348| 
    1635 0000001c 2B41          MOV       *-SP[1],#0            ; [CPU_FPU] |348| 
    1636              $C$DW$124       .dwtag  DW_TAG_TI_branch
    1637                      .dwattr $C$DW$124, DW_AT_low_pc(0x00)
    1638                      .dwattr $C$DW$124, DW_AT_name("__c28xabi_cmpull")
    1639                      .dwattr $C$DW$124, DW_AT_TI_call
    1640              
    1641 0000001d 7640!         LCR       #||__c28xabi_cmpull|| ; [CPU_ALU] |348| 
         0000001e 0000 
    1642                      ; call occurs [#||__c28xabi_cmpull||] ; [] |348| 
    1643 0000001f 5200          CMPB      AL,#0                 ; [CPU_ALU] |348| 
TMS320C2000 Assembler PC v22.6.1 Tue Jul  2 19:04:17 2024

Copyright (c) 1996-2018 Texas Instruments Incorporated
sfra_gui_scicomms_driverlib.asm                                      PAGE   32

    1644 00000020 56B0          MOVB      XAR4,#1,NEQ           ; [CPU_ALU] |348| 
         00000021 01A4 
    1645 00000022       ||$C$L4||:    
    1646 00000022 FE84          SUBB      SP,#4                 ; [CPU_ARAU] 
    1647                      .dwcfi  cfa_offset, -2
    1648 00000023 92A4          MOV       AL,AR4                ; [CPU_ALU] |348| 
    1649              $C$DW$125       .dwtag  DW_TAG_TI_branch
    1650                      .dwattr $C$DW$125, DW_AT_low_pc(0x00)
    1651                      .dwattr $C$DW$125, DW_AT_TI_return
    1652              
    1653 00000024 0006          LRETR     ; [CPU_ALU] 
    1654                      ; return occurs ; [] 
    1655                      .dwattr $C$DW$121, DW_AT_TI_end_file("C:/ti/ccs1260/ccs/tools/compiler/ti-cgt-c2000_22.6.1.LTS/includ
    1656                      .dwattr $C$DW$121, DW_AT_TI_end_line(0x15d)
    1657                      .dwattr $C$DW$121, DW_AT_TI_end_column(0x30)
    1658                      .dwendentry
    1659                      .dwendtag $C$DW$121
    1660              
    1661 00000000               .sect   ".text:__isnanf"
    1662                      .clink
    1663                      .global ||__isnanf||
    1664              
    1665              $C$DW$126       .dwtag  DW_TAG_subprogram
    1666                      .dwattr $C$DW$126, DW_AT_name("__isnanf")
    1667                      .dwattr $C$DW$126, DW_AT_low_pc(||__isnanf||)
    1668                      .dwattr $C$DW$126, DW_AT_high_pc(0x00)
    1669                      .dwattr $C$DW$126, DW_AT_linkage_name("__isnanf")
    1670                      .dwattr $C$DW$126, DW_AT_external
    1671                      .dwattr $C$DW$126, DW_AT_type(*$C$DW$T$10)
    1672                      .dwattr $C$DW$126, DW_AT_decl_file("C:/ti/ccs1260/ccs/tools/compiler/ti-cgt-c2000_22.6.1.LTS/include/
    1673                      .dwattr $C$DW$126, DW_AT_decl_line(0x158)
    1674                      .dwattr $C$DW$126, DW_AT_decl_column(0x18)
    1675                      .dwattr $C$DW$126, DW_AT_TI_max_frame_size(-2)
    1676                      .dwpsn  file "C:/ti/ccs1260/ccs/tools/compiler/ti-cgt-c2000_22.6.1.LTS/include/_defs.h",line 345,colu
    1677              
    1678                      .dwfde $C$DW$CIE, ||__isnanf||
    1679              $C$DW$127       .dwtag  DW_TAG_formal_parameter
    1680                      .dwattr $C$DW$127, DW_AT_name("f")
    1681                      .dwattr $C$DW$127, DW_AT_type(*$C$DW$T$16)
    1682                      .dwattr $C$DW$127, DW_AT_location[DW_OP_regx 0x2b]
    1683              
    1684              
    1685              ;***************************************************************
    1686              ;* FNAME: __isnanf                      FR SIZE:   0           *
    1687              ;*                                                             *
    1688              ;* FUNCTION ENVIRONMENT                                        *
    1689              ;*                                                             *
    1690              ;* FUNCTION PROPERTIES                                         *
    1691              ;*                            0 Parameter,  0 Auto,  0 SOE     *
    1692              ;***************************************************************
    1693              
    1694              ||__isnanf||:
    1695              ;* PL    assigned to $O$K3
    1696              ;* AR6   assigned to $O$S1
    1697              ;* R0    assigned to f
TMS320C2000 Assembler PC v22.6.1 Tue Jul  2 19:04:17 2024

Copyright (c) 1996-2018 Texas Instruments Incorporated
sfra_gui_scicomms_driverlib.asm                                      PAGE   33

    1698              $C$DW$128       .dwtag  DW_TAG_variable
    1699                      .dwattr $C$DW$128, DW_AT_name("f")
    1700                      .dwattr $C$DW$128, DW_AT_type(*$C$DW$T$100)
    1701                      .dwattr $C$DW$128, DW_AT_location[DW_OP_regx 0x2b]
    1702              
    1703                      .dwcfi  cfa_offset, -2
    1704                      .dwcfi  save_reg_to_mem, 26, 0
    1705                      .dwpsn  file "C:/ti/ccs1260/ccs/tools/compiler/ti-cgt-c2000_22.6.1.LTS/include/_defs.h",line 345,colu
    1706 00000000 BFAB          MOV32     P,R0H                 ; [CPU_FPU] |345| 
         00000001 0F12 
    1707 00000002 CCAA          AND       AL,PH,#0x7f80         ; [CPU_ALU] |345| 
         00000003 7F80 
    1708 00000004 80A9          MOVZ      AR7,AL                ; [CPU_ALU] |345| 
    1709 00000005 BE00          MOVB      XAR6,#0               ; [CPU_ALU] |345| 
    1710 00000006 FF20          MOV       ACC,#32640            ; [CPU_ALU] |345| 
         00000007 7F80 
    1711 00000008 0FA7          CMPL      ACC,XAR7              ; [CPU_ALU] |345| 
    1712 00000009 6006          B         ||$C$L5||,NEQ         ; [CPU_ALU] |345| 
    1713                      ; branchcc occurs ; [] |345| 
    1714 0000000a A9A9          MOVL      ACC,P                 ; [CPU_ALU] |345| 
    1715 0000000b 917F          ANDB      AH,#127               ; [CPU_ALU] |345| 
    1716 0000000c FF58          TEST      ACC                   ; [CPU_ALU] |345| 
    1717 0000000d 56B0          MOVB      XAR6,#1,NEQ           ; [CPU_ALU] |345| 
         0000000e 01A6 
    1718 0000000f       ||$C$L5||:    
    1719 0000000f 92A6          MOV       AL,AR6                ; [CPU_ALU] |345| 
    1720              $C$DW$129       .dwtag  DW_TAG_TI_branch
    1721                      .dwattr $C$DW$129, DW_AT_low_pc(0x00)
    1722                      .dwattr $C$DW$129, DW_AT_TI_return
    1723              
    1724 00000010 0006          LRETR     ; [CPU_ALU] 
    1725                      ; return occurs ; [] 
    1726                      .dwattr $C$DW$126, DW_AT_TI_end_file("C:/ti/ccs1260/ccs/tools/compiler/ti-cgt-c2000_22.6.1.LTS/includ
    1727                      .dwattr $C$DW$126, DW_AT_TI_end_line(0x15a)
    1728                      .dwattr $C$DW$126, DW_AT_TI_end_column(0x2e)
    1729                      .dwendentry
    1730                      .dwendtag $C$DW$126
    1731              
    1732 00000000               .sect   ".text:__isnan"
    1733                      .clink
    1734                      .global ||__isnan||
    1735              
    1736              $C$DW$130       .dwtag  DW_TAG_subprogram
    1737                      .dwattr $C$DW$130, DW_AT_name("__isnan")
    1738                      .dwattr $C$DW$130, DW_AT_low_pc(||__isnan||)
    1739                      .dwattr $C$DW$130, DW_AT_high_pc(0x00)
    1740                      .dwattr $C$DW$130, DW_AT_linkage_name("__isnan")
    1741                      .dwattr $C$DW$130, DW_AT_external
    1742                      .dwattr $C$DW$130, DW_AT_type(*$C$DW$T$10)
    1743                      .dwattr $C$DW$130, DW_AT_decl_file("C:/ti/ccs1260/ccs/tools/compiler/ti-cgt-c2000_22.6.1.LTS/include/
    1744                      .dwattr $C$DW$130, DW_AT_decl_line(0x155)
    1745                      .dwattr $C$DW$130, DW_AT_decl_column(0x18)
    1746                      .dwattr $C$DW$130, DW_AT_TI_max_frame_size(-6)
    1747                      .dwpsn  file "C:/ti/ccs1260/ccs/tools/compiler/ti-cgt-c2000_22.6.1.LTS/include/_defs.h",line 342,colu
    1748              
TMS320C2000 Assembler PC v22.6.1 Tue Jul  2 19:04:17 2024

Copyright (c) 1996-2018 Texas Instruments Incorporated
sfra_gui_scicomms_driverlib.asm                                      PAGE   34

    1749                      .dwfde $C$DW$CIE, ||__isnan||
    1750              $C$DW$131       .dwtag  DW_TAG_formal_parameter
    1751                      .dwattr $C$DW$131, DW_AT_name("d")
    1752                      .dwattr $C$DW$131, DW_AT_type(*$C$DW$T$101)
    1753                      .dwattr $C$DW$131, DW_AT_location[DW_OP_reg12]
    1754              
    1755              
    1756              ;***************************************************************
    1757              ;* FNAME: __isnan                       FR SIZE:   4           *
    1758              ;*                                                             *
    1759              ;* FUNCTION ENVIRONMENT                                        *
    1760              ;*                                                             *
    1761              ;* FUNCTION PROPERTIES                                         *
    1762              ;*                            4 Parameter,  0 Auto,  0 SOE     *
    1763              ;***************************************************************
    1764              
    1765              ||__isnan||:
    1766              ;* AR7   assigned to $O$C2
    1767              ;* AR4   assigned to $O$S1
    1768              ;* AR4   assigned to d
    1769              $C$DW$132       .dwtag  DW_TAG_variable
    1770                      .dwattr $C$DW$132, DW_AT_name("d")
    1771                      .dwattr $C$DW$132, DW_AT_type(*$C$DW$T$102)
    1772                      .dwattr $C$DW$132, DW_AT_location[DW_OP_reg12]
    1773              
    1774                      .dwcfi  cfa_offset, -2
    1775                      .dwcfi  save_reg_to_mem, 26, 0
    1776 00000000 FE04          ADDB      SP,#4                 ; [CPU_ARAU] 
    1777                      .dwcfi  cfa_offset, -6
    1778                      .dwpsn  file "C:/ti/ccs1260/ccs/tools/compiler/ti-cgt-c2000_22.6.1.LTS/include/_defs.h",line 342,colu
    1779 00000001 C5C4          MOVL      XAR7,*+XAR4[0]        ; [CPU_ALU] |342| 
    1780 00000002 06D4          MOVL      ACC,*+XAR4[2]         ; [CPU_ALU] |342| 
    1781 00000003 28AC          MOV       T,#48                 ; [CPU_ALU] |342| 
         00000004 0030 
    1782 00000005 1EA6          MOVL      XAR6,ACC              ; [CPU_ALU] |342| 
    1783 00000006 A3A7          MOVL      P,XAR7                ; [CPU_ALU] |342| 
    1784 00000007 D400          MOVB      XAR4,#0               ; [CPU_ALU] |342| 
    1785 00000008 565B          LSR64     ACC:P,T               ; [CPU_ALU] |342| 
    1786 00000009 2BAA          MOV       PH,#0                 ; [CPU_ALU] |342| 
    1787 0000000a 18AB          AND       PL,#0x7ff0            ; [CPU_ALU] |342| 
         0000000b 7FF0 
    1788 0000000c FF20          MOV       ACC,#32752            ; [CPU_ALU] |342| 
         0000000d 7FF0 
    1789 0000000e 0FAB          CMPL      ACC,P                 ; [CPU_ALU] |342| 
    1790 0000000f 6013          B         ||$C$L6||,NEQ         ; [CPU_ALU] |342| 
    1791                      ; branchcc occurs ; [] |342| 
    1792 00000010 06A6          MOVL      ACC,XAR6              ; [CPU_ALU] |342| 
    1793 00000011 A3A7          MOVL      P,XAR7                ; [CPU_ALU] |342| 
    1794 00000012 BE00          MOVB      XAR6,#0               ; [CPU_ALU] |342| 
    1795 00000013 18A9          AND       AL,#65535             ; [CPU_ALU] |342| 
         00000014 FFFF 
    1796 00000015 910F          ANDB      AH,#15                ; [CPU_ALU] |342| 
    1797 00000016 18AB          AND       PL,#65535             ; [CPU_ALU] |342| 
         00000017 FFFF 
    1798 00000018 18AA          AND       PH,#65535             ; [CPU_ALU] |342| 
TMS320C2000 Assembler PC v22.6.1 Tue Jul  2 19:04:17 2024

Copyright (c) 1996-2018 Texas Instruments Incorporated
sfra_gui_scicomms_driverlib.asm                                      PAGE   35

         00000019 FFFF 
    1799 0000001a C244          MOVL      *-SP[4],XAR6          ; [CPU_FPU] |342| 
    1800 0000001b 2B42          MOV       *-SP[2],#0            ; [CPU_FPU] |342| 
    1801 0000001c 2B41          MOV       *-SP[1],#0            ; [CPU_FPU] |342| 
    1802              $C$DW$133       .dwtag  DW_TAG_TI_branch
    1803                      .dwattr $C$DW$133, DW_AT_low_pc(0x00)
    1804                      .dwattr $C$DW$133, DW_AT_name("__c28xabi_cmpull")
    1805                      .dwattr $C$DW$133, DW_AT_TI_call
    1806              
    1807 0000001d 7640!         LCR       #||__c28xabi_cmpull|| ; [CPU_ALU] |342| 
         0000001e 0000 
    1808                      ; call occurs [#||__c28xabi_cmpull||] ; [] |342| 
    1809 0000001f 5200          CMPB      AL,#0                 ; [CPU_ALU] |342| 
    1810 00000020 56B0          MOVB      XAR4,#1,NEQ           ; [CPU_ALU] |342| 
         00000021 01A4 
    1811 00000022       ||$C$L6||:    
    1812 00000022 FE84          SUBB      SP,#4                 ; [CPU_ARAU] 
    1813                      .dwcfi  cfa_offset, -2
    1814 00000023 92A4          MOV       AL,AR4                ; [CPU_ALU] |342| 
    1815              $C$DW$134       .dwtag  DW_TAG_TI_branch
    1816                      .dwattr $C$DW$134, DW_AT_low_pc(0x00)
    1817                      .dwattr $C$DW$134, DW_AT_TI_return
    1818              
    1819 00000024 0006          LRETR     ; [CPU_ALU] 
    1820                      ; return occurs ; [] 
    1821                      .dwattr $C$DW$130, DW_AT_TI_end_file("C:/ti/ccs1260/ccs/tools/compiler/ti-cgt-c2000_22.6.1.LTS/includ
    1822                      .dwattr $C$DW$130, DW_AT_TI_end_line(0x157)
    1823                      .dwattr $C$DW$130, DW_AT_TI_end_column(0x2f)
    1824                      .dwendentry
    1825                      .dwendtag $C$DW$130
    1826              
    1827 00000000               .sect   ".text:__isinfl"
    1828                      .clink
    1829                      .global ||__isinfl||
    1830              
    1831              $C$DW$135       .dwtag  DW_TAG_subprogram
    1832                      .dwattr $C$DW$135, DW_AT_name("__isinfl")
    1833                      .dwattr $C$DW$135, DW_AT_low_pc(||__isinfl||)
    1834                      .dwattr $C$DW$135, DW_AT_high_pc(0x00)
    1835                      .dwattr $C$DW$135, DW_AT_linkage_name("__isinfl")
    1836                      .dwattr $C$DW$135, DW_AT_external
    1837                      .dwattr $C$DW$135, DW_AT_type(*$C$DW$T$10)
    1838                      .dwattr $C$DW$135, DW_AT_decl_file("C:/ti/ccs1260/ccs/tools/compiler/ti-cgt-c2000_22.6.1.LTS/include/
    1839                      .dwattr $C$DW$135, DW_AT_decl_line(0x17a)
    1840                      .dwattr $C$DW$135, DW_AT_decl_column(0x18)
    1841                      .dwattr $C$DW$135, DW_AT_TI_max_frame_size(-6)
    1842                      .dwpsn  file "C:/ti/ccs1260/ccs/tools/compiler/ti-cgt-c2000_22.6.1.LTS/include/_defs.h",line 379,colu
    1843              
    1844                      .dwfde $C$DW$CIE, ||__isinfl||
    1845              $C$DW$136       .dwtag  DW_TAG_formal_parameter
    1846                      .dwattr $C$DW$136, DW_AT_name("e")
    1847                      .dwattr $C$DW$136, DW_AT_type(*$C$DW$T$103)
    1848                      .dwattr $C$DW$136, DW_AT_location[DW_OP_reg12]
    1849              
    1850              
TMS320C2000 Assembler PC v22.6.1 Tue Jul  2 19:04:17 2024

Copyright (c) 1996-2018 Texas Instruments Incorporated
sfra_gui_scicomms_driverlib.asm                                      PAGE   36

    1851              ;***************************************************************
    1852              ;* FNAME: __isinfl                      FR SIZE:   4           *
    1853              ;*                                                             *
    1854              ;* FUNCTION ENVIRONMENT                                        *
    1855              ;*                                                             *
    1856              ;* FUNCTION PROPERTIES                                         *
    1857              ;*                            4 Parameter,  0 Auto,  0 SOE     *
    1858              ;***************************************************************
    1859              
    1860              ||__isinfl||:
    1861              ;* AR7   assigned to $O$C2
    1862              ;* AR4   assigned to $O$S1
    1863              ;* AR4   assigned to e
    1864              $C$DW$137       .dwtag  DW_TAG_variable
    1865                      .dwattr $C$DW$137, DW_AT_name("e")
    1866                      .dwattr $C$DW$137, DW_AT_type(*$C$DW$T$104)
    1867                      .dwattr $C$DW$137, DW_AT_location[DW_OP_reg12]
    1868              
    1869                      .dwcfi  cfa_offset, -2
    1870                      .dwcfi  save_reg_to_mem, 26, 0
    1871 00000000 FE04          ADDB      SP,#4                 ; [CPU_ARAU] 
    1872                      .dwcfi  cfa_offset, -6
    1873                      .dwpsn  file "C:/ti/ccs1260/ccs/tools/compiler/ti-cgt-c2000_22.6.1.LTS/include/_defs.h",line 379,colu
    1874 00000001 C5C4          MOVL      XAR7,*+XAR4[0]        ; [CPU_ALU] |379| 
    1875 00000002 06D4          MOVL      ACC,*+XAR4[2]         ; [CPU_ALU] |379| 
    1876 00000003 28AC          MOV       T,#48                 ; [CPU_ALU] |379| 
         00000004 0030 
    1877 00000005 1EA6          MOVL      XAR6,ACC              ; [CPU_ALU] |379| 
    1878 00000006 A3A7          MOVL      P,XAR7                ; [CPU_ALU] |379| 
    1879 00000007 D400          MOVB      XAR4,#0               ; [CPU_ALU] |379| 
    1880 00000008 565B          LSR64     ACC:P,T               ; [CPU_ALU] |379| 
    1881 00000009 2BAA          MOV       PH,#0                 ; [CPU_ALU] |379| 
    1882 0000000a 18AB          AND       PL,#0x7ff0            ; [CPU_ALU] |379| 
         0000000b 7FF0 
    1883 0000000c FF20          MOV       ACC,#32752            ; [CPU_ALU] |379| 
         0000000d 7FF0 
    1884 0000000e 0FAB          CMPL      ACC,P                 ; [CPU_ALU] |379| 
    1885 0000000f 6013          B         ||$C$L7||,NEQ         ; [CPU_ALU] |379| 
    1886                      ; branchcc occurs ; [] |379| 
    1887 00000010 06A6          MOVL      ACC,XAR6              ; [CPU_ALU] |379| 
    1888 00000011 A3A7          MOVL      P,XAR7                ; [CPU_ALU] |379| 
    1889 00000012 BE00          MOVB      XAR6,#0               ; [CPU_ALU] |379| 
    1890 00000013 18A9          AND       AL,#65535             ; [CPU_ALU] |379| 
         00000014 FFFF 
    1891 00000015 910F          ANDB      AH,#15                ; [CPU_ALU] |379| 
    1892 00000016 18AB          AND       PL,#65535             ; [CPU_ALU] |379| 
         00000017 FFFF 
    1893 00000018 18AA          AND       PH,#65535             ; [CPU_ALU] |379| 
         00000019 FFFF 
    1894 0000001a C244          MOVL      *-SP[4],XAR6          ; [CPU_FPU] |379| 
    1895 0000001b 2B42          MOV       *-SP[2],#0            ; [CPU_FPU] |379| 
    1896 0000001c 2B41          MOV       *-SP[1],#0            ; [CPU_FPU] |379| 
    1897              $C$DW$138       .dwtag  DW_TAG_TI_branch
    1898                      .dwattr $C$DW$138, DW_AT_low_pc(0x00)
    1899                      .dwattr $C$DW$138, DW_AT_name("__c28xabi_cmpull")
TMS320C2000 Assembler PC v22.6.1 Tue Jul  2 19:04:17 2024

Copyright (c) 1996-2018 Texas Instruments Incorporated
sfra_gui_scicomms_driverlib.asm                                      PAGE   37

    1900                      .dwattr $C$DW$138, DW_AT_TI_call
    1901              
    1902 0000001d 7640!         LCR       #||__c28xabi_cmpull|| ; [CPU_ALU] |379| 
         0000001e 0000 
    1903                      ; call occurs [#||__c28xabi_cmpull||] ; [] |379| 
    1904 0000001f 5200          CMPB      AL,#0                 ; [CPU_ALU] |379| 
    1905 00000020 56B1          MOVB      XAR4,#1,EQ            ; [CPU_ALU] |379| 
         00000021 01A4 
    1906 00000022       ||$C$L7||:    
    1907 00000022 FE84          SUBB      SP,#4                 ; [CPU_ARAU] 
    1908                      .dwcfi  cfa_offset, -2
    1909 00000023 92A4          MOV       AL,AR4                ; [CPU_ALU] |379| 
    1910              $C$DW$139       .dwtag  DW_TAG_TI_branch
    1911                      .dwattr $C$DW$139, DW_AT_low_pc(0x00)
    1912                      .dwattr $C$DW$139, DW_AT_TI_return
    1913              
    1914 00000024 0006          LRETR     ; [CPU_ALU] 
    1915                      ; return occurs ; [] 
    1916                      .dwattr $C$DW$135, DW_AT_TI_end_file("C:/ti/ccs1260/ccs/tools/compiler/ti-cgt-c2000_22.6.1.LTS/includ
    1917                      .dwattr $C$DW$135, DW_AT_TI_end_line(0x17b)
    1918                      .dwattr $C$DW$135, DW_AT_TI_end_column(0x4c)
    1919                      .dwendentry
    1920                      .dwendtag $C$DW$135
    1921              
    1922 00000000               .sect   ".text:__isinff"
    1923                      .clink
    1924                      .global ||__isinff||
    1925              
    1926              $C$DW$140       .dwtag  DW_TAG_subprogram
    1927                      .dwattr $C$DW$140, DW_AT_name("__isinff")
    1928                      .dwattr $C$DW$140, DW_AT_low_pc(||__isinff||)
    1929                      .dwattr $C$DW$140, DW_AT_high_pc(0x00)
    1930                      .dwattr $C$DW$140, DW_AT_linkage_name("__isinff")
    1931                      .dwattr $C$DW$140, DW_AT_external
    1932                      .dwattr $C$DW$140, DW_AT_type(*$C$DW$T$10)
    1933                      .dwattr $C$DW$140, DW_AT_decl_file("C:/ti/ccs1260/ccs/tools/compiler/ti-cgt-c2000_22.6.1.LTS/include/
    1934                      .dwattr $C$DW$140, DW_AT_decl_line(0x176)
    1935                      .dwattr $C$DW$140, DW_AT_decl_column(0x18)
    1936                      .dwattr $C$DW$140, DW_AT_TI_max_frame_size(-2)
    1937                      .dwpsn  file "C:/ti/ccs1260/ccs/tools/compiler/ti-cgt-c2000_22.6.1.LTS/include/_defs.h",line 375,colu
    1938              
    1939                      .dwfde $C$DW$CIE, ||__isinff||
    1940              $C$DW$141       .dwtag  DW_TAG_formal_parameter
    1941                      .dwattr $C$DW$141, DW_AT_name("f")
    1942                      .dwattr $C$DW$141, DW_AT_type(*$C$DW$T$16)
    1943                      .dwattr $C$DW$141, DW_AT_location[DW_OP_regx 0x2b]
    1944              
    1945              
    1946              ;***************************************************************
    1947              ;* FNAME: __isinff                      FR SIZE:   0           *
    1948              ;*                                                             *
    1949              ;* FUNCTION ENVIRONMENT                                        *
    1950              ;*                                                             *
    1951              ;* FUNCTION PROPERTIES                                         *
    1952              ;*                            0 Parameter,  0 Auto,  0 SOE     *
TMS320C2000 Assembler PC v22.6.1 Tue Jul  2 19:04:17 2024

Copyright (c) 1996-2018 Texas Instruments Incorporated
sfra_gui_scicomms_driverlib.asm                                      PAGE   38

    1953              ;***************************************************************
    1954              
    1955              ||__isinff||:
    1956              ;* PL    assigned to $O$K3
    1957              ;* AR6   assigned to $O$S1
    1958              ;* R0    assigned to f
    1959              $C$DW$142       .dwtag  DW_TAG_variable
    1960                      .dwattr $C$DW$142, DW_AT_name("f")
    1961                      .dwattr $C$DW$142, DW_AT_type(*$C$DW$T$100)
    1962                      .dwattr $C$DW$142, DW_AT_location[DW_OP_regx 0x2b]
    1963              
    1964                      .dwcfi  cfa_offset, -2
    1965                      .dwcfi  save_reg_to_mem, 26, 0
    1966                      .dwpsn  file "C:/ti/ccs1260/ccs/tools/compiler/ti-cgt-c2000_22.6.1.LTS/include/_defs.h",line 375,colu
    1967 00000000 BFAB          MOV32     P,R0H                 ; [CPU_FPU] |375| 
         00000001 0F12 
    1968 00000002 CCAA          AND       AL,PH,#0x7f80         ; [CPU_ALU] |375| 
         00000003 7F80 
    1969 00000004 80A9          MOVZ      AR7,AL                ; [CPU_ALU] |375| 
    1970 00000005 BE00          MOVB      XAR6,#0               ; [CPU_ALU] |375| 
    1971 00000006 FF20          MOV       ACC,#32640            ; [CPU_ALU] |375| 
         00000007 7F80 
    1972 00000008 0FA7          CMPL      ACC,XAR7              ; [CPU_ALU] |375| 
    1973 00000009 6006          B         ||$C$L8||,NEQ         ; [CPU_ALU] |375| 
    1974                      ; branchcc occurs ; [] |375| 
    1975 0000000a A9A9          MOVL      ACC,P                 ; [CPU_ALU] |375| 
    1976 0000000b 917F          ANDB      AH,#127               ; [CPU_ALU] |375| 
    1977 0000000c FF58          TEST      ACC                   ; [CPU_ALU] |375| 
    1978 0000000d 56B1          MOVB      XAR6,#1,EQ            ; [CPU_ALU] |375| 
         0000000e 01A6 
    1979 0000000f       ||$C$L8||:    
    1980 0000000f 92A6          MOV       AL,AR6                ; [CPU_ALU] |375| 
    1981              $C$DW$143       .dwtag  DW_TAG_TI_branch
    1982                      .dwattr $C$DW$143, DW_AT_low_pc(0x00)
    1983                      .dwattr $C$DW$143, DW_AT_TI_return
    1984              
    1985 00000010 0006          LRETR     ; [CPU_ALU] 
    1986                      ; return occurs ; [] 
    1987                      .dwattr $C$DW$140, DW_AT_TI_end_file("C:/ti/ccs1260/ccs/tools/compiler/ti-cgt-c2000_22.6.1.LTS/includ
    1988                      .dwattr $C$DW$140, DW_AT_TI_end_line(0x177)
    1989                      .dwattr $C$DW$140, DW_AT_TI_end_column(0x48)
    1990                      .dwendentry
    1991                      .dwendtag $C$DW$140
    1992              
    1993 00000000               .sect   ".text:__isinf"
    1994                      .clink
    1995                      .global ||__isinf||
    1996              
    1997              $C$DW$144       .dwtag  DW_TAG_subprogram
    1998                      .dwattr $C$DW$144, DW_AT_name("__isinf")
    1999                      .dwattr $C$DW$144, DW_AT_low_pc(||__isinf||)
    2000                      .dwattr $C$DW$144, DW_AT_high_pc(0x00)
    2001                      .dwattr $C$DW$144, DW_AT_linkage_name("__isinf")
    2002                      .dwattr $C$DW$144, DW_AT_external
    2003                      .dwattr $C$DW$144, DW_AT_type(*$C$DW$T$10)
TMS320C2000 Assembler PC v22.6.1 Tue Jul  2 19:04:17 2024

Copyright (c) 1996-2018 Texas Instruments Incorporated
sfra_gui_scicomms_driverlib.asm                                      PAGE   39

    2004                      .dwattr $C$DW$144, DW_AT_decl_file("C:/ti/ccs1260/ccs/tools/compiler/ti-cgt-c2000_22.6.1.LTS/include/
    2005                      .dwattr $C$DW$144, DW_AT_decl_line(0x178)
    2006                      .dwattr $C$DW$144, DW_AT_decl_column(0x18)
    2007                      .dwattr $C$DW$144, DW_AT_TI_max_frame_size(-6)
    2008                      .dwpsn  file "C:/ti/ccs1260/ccs/tools/compiler/ti-cgt-c2000_22.6.1.LTS/include/_defs.h",line 377,colu
    2009              
    2010                      .dwfde $C$DW$CIE, ||__isinf||
    2011              $C$DW$145       .dwtag  DW_TAG_formal_parameter
    2012                      .dwattr $C$DW$145, DW_AT_name("d")
    2013                      .dwattr $C$DW$145, DW_AT_type(*$C$DW$T$101)
    2014                      .dwattr $C$DW$145, DW_AT_location[DW_OP_reg12]
    2015              
    2016              
    2017              ;***************************************************************
    2018              ;* FNAME: __isinf                       FR SIZE:   4           *
    2019              ;*                                                             *
    2020              ;* FUNCTION ENVIRONMENT                                        *
    2021              ;*                                                             *
    2022              ;* FUNCTION PROPERTIES                                         *
    2023              ;*                            4 Parameter,  0 Auto,  0 SOE     *
    2024              ;***************************************************************
    2025              
    2026              ||__isinf||:
    2027              ;* AR7   assigned to $O$C2
    2028              ;* AR4   assigned to $O$S1
    2029              ;* AR4   assigned to d
    2030              $C$DW$146       .dwtag  DW_TAG_variable
    2031                      .dwattr $C$DW$146, DW_AT_name("d")
    2032                      .dwattr $C$DW$146, DW_AT_type(*$C$DW$T$102)
    2033                      .dwattr $C$DW$146, DW_AT_location[DW_OP_reg12]
    2034              
    2035                      .dwcfi  cfa_offset, -2
    2036                      .dwcfi  save_reg_to_mem, 26, 0
    2037 00000000 FE04          ADDB      SP,#4                 ; [CPU_ARAU] 
    2038                      .dwcfi  cfa_offset, -6
    2039                      .dwpsn  file "C:/ti/ccs1260/ccs/tools/compiler/ti-cgt-c2000_22.6.1.LTS/include/_defs.h",line 377,colu
    2040 00000001 C5C4          MOVL      XAR7,*+XAR4[0]        ; [CPU_ALU] |377| 
    2041 00000002 06D4          MOVL      ACC,*+XAR4[2]         ; [CPU_ALU] |377| 
    2042 00000003 28AC          MOV       T,#48                 ; [CPU_ALU] |377| 
         00000004 0030 
    2043 00000005 1EA6          MOVL      XAR6,ACC              ; [CPU_ALU] |377| 
    2044 00000006 A3A7          MOVL      P,XAR7                ; [CPU_ALU] |377| 
    2045 00000007 D400          MOVB      XAR4,#0               ; [CPU_ALU] |377| 
    2046 00000008 565B          LSR64     ACC:P,T               ; [CPU_ALU] |377| 
    2047 00000009 2BAA          MOV       PH,#0                 ; [CPU_ALU] |377| 
    2048 0000000a 18AB          AND       PL,#0x7ff0            ; [CPU_ALU] |377| 
         0000000b 7FF0 
    2049 0000000c FF20          MOV       ACC,#32752            ; [CPU_ALU] |377| 
         0000000d 7FF0 
    2050 0000000e 0FAB          CMPL      ACC,P                 ; [CPU_ALU] |377| 
    2051 0000000f 6013          B         ||$C$L9||,NEQ         ; [CPU_ALU] |377| 
    2052                      ; branchcc occurs ; [] |377| 
    2053 00000010 06A6          MOVL      ACC,XAR6              ; [CPU_ALU] |377| 
    2054 00000011 A3A7          MOVL      P,XAR7                ; [CPU_ALU] |377| 
    2055 00000012 BE00          MOVB      XAR6,#0               ; [CPU_ALU] |377| 
TMS320C2000 Assembler PC v22.6.1 Tue Jul  2 19:04:17 2024

Copyright (c) 1996-2018 Texas Instruments Incorporated
sfra_gui_scicomms_driverlib.asm                                      PAGE   40

    2056 00000013 18A9          AND       AL,#65535             ; [CPU_ALU] |377| 
         00000014 FFFF 
    2057 00000015 910F          ANDB      AH,#15                ; [CPU_ALU] |377| 
    2058 00000016 18AB          AND       PL,#65535             ; [CPU_ALU] |377| 
         00000017 FFFF 
    2059 00000018 18AA          AND       PH,#65535             ; [CPU_ALU] |377| 
         00000019 FFFF 
    2060 0000001a C244          MOVL      *-SP[4],XAR6          ; [CPU_FPU] |377| 
    2061 0000001b 2B42          MOV       *-SP[2],#0            ; [CPU_FPU] |377| 
    2062 0000001c 2B41          MOV       *-SP[1],#0            ; [CPU_FPU] |377| 
    2063              $C$DW$147       .dwtag  DW_TAG_TI_branch
    2064                      .dwattr $C$DW$147, DW_AT_low_pc(0x00)
    2065                      .dwattr $C$DW$147, DW_AT_name("__c28xabi_cmpull")
    2066                      .dwattr $C$DW$147, DW_AT_TI_call
    2067              
    2068 0000001d 7640!         LCR       #||__c28xabi_cmpull|| ; [CPU_ALU] |377| 
         0000001e 0000 
    2069                      ; call occurs [#||__c28xabi_cmpull||] ; [] |377| 
    2070 0000001f 5200          CMPB      AL,#0                 ; [CPU_ALU] |377| 
    2071 00000020 56B1          MOVB      XAR4,#1,EQ            ; [CPU_ALU] |377| 
         00000021 01A4 
    2072 00000022       ||$C$L9||:    
    2073 00000022 FE84          SUBB      SP,#4                 ; [CPU_ARAU] 
    2074                      .dwcfi  cfa_offset, -2
    2075 00000023 92A4          MOV       AL,AR4                ; [CPU_ALU] |377| 
    2076              $C$DW$148       .dwtag  DW_TAG_TI_branch
    2077                      .dwattr $C$DW$148, DW_AT_low_pc(0x00)
    2078                      .dwattr $C$DW$148, DW_AT_TI_return
    2079              
    2080 00000024 0006          LRETR     ; [CPU_ALU] 
    2081                      ; return occurs ; [] 
    2082                      .dwattr $C$DW$144, DW_AT_TI_end_file("C:/ti/ccs1260/ccs/tools/compiler/ti-cgt-c2000_22.6.1.LTS/includ
    2083                      .dwattr $C$DW$144, DW_AT_TI_end_line(0x179)
    2084                      .dwattr $C$DW$144, DW_AT_TI_end_column(0x4a)
    2085                      .dwendentry
    2086                      .dwendtag $C$DW$144
    2087              
    2088 00000000               .sect   ".text:__isfinitel"
    2089                      .clink
    2090                      .global ||__isfinitel||
    2091              
    2092              $C$DW$149       .dwtag  DW_TAG_subprogram
    2093                      .dwattr $C$DW$149, DW_AT_name("__isfinitel")
    2094                      .dwattr $C$DW$149, DW_AT_low_pc(||__isfinitel||)
    2095                      .dwattr $C$DW$149, DW_AT_high_pc(0x00)
    2096                      .dwattr $C$DW$149, DW_AT_linkage_name("__isfinitel")
    2097                      .dwattr $C$DW$149, DW_AT_external
    2098                      .dwattr $C$DW$149, DW_AT_type(*$C$DW$T$10)
    2099                      .dwattr $C$DW$149, DW_AT_decl_file("C:/ti/ccs1260/ccs/tools/compiler/ti-cgt-c2000_22.6.1.LTS/include/
    2100                      .dwattr $C$DW$149, DW_AT_decl_line(0x152)
    2101                      .dwattr $C$DW$149, DW_AT_decl_column(0x18)
    2102                      .dwattr $C$DW$149, DW_AT_TI_max_frame_size(-2)
    2103                      .dwpsn  file "C:/ti/ccs1260/ccs/tools/compiler/ti-cgt-c2000_22.6.1.LTS/include/_defs.h",line 339,colu
    2104              
    2105                      .dwfde $C$DW$CIE, ||__isfinitel||
TMS320C2000 Assembler PC v22.6.1 Tue Jul  2 19:04:17 2024

Copyright (c) 1996-2018 Texas Instruments Incorporated
sfra_gui_scicomms_driverlib.asm                                      PAGE   41

    2106              $C$DW$150       .dwtag  DW_TAG_formal_parameter
    2107                      .dwattr $C$DW$150, DW_AT_name("e")
    2108                      .dwattr $C$DW$150, DW_AT_type(*$C$DW$T$103)
    2109                      .dwattr $C$DW$150, DW_AT_location[DW_OP_reg12]
    2110              
    2111              
    2112              ;***************************************************************
    2113              ;* FNAME: __isfinitel                   FR SIZE:   0           *
    2114              ;*                                                             *
    2115              ;* FUNCTION ENVIRONMENT                                        *
    2116              ;*                                                             *
    2117              ;* FUNCTION PROPERTIES                                         *
    2118              ;*                            0 Parameter,  0 Auto,  0 SOE     *
    2119              ;***************************************************************
    2120              
    2121              ||__isfinitel||:
    2122              ;* AR4   assigned to e
    2123              $C$DW$151       .dwtag  DW_TAG_variable
    2124                      .dwattr $C$DW$151, DW_AT_name("e")
    2125                      .dwattr $C$DW$151, DW_AT_type(*$C$DW$T$104)
    2126                      .dwattr $C$DW$151, DW_AT_location[DW_OP_reg12]
    2127              
    2128                      .dwcfi  cfa_offset, -2
    2129                      .dwcfi  save_reg_to_mem, 26, 0
    2130                      .dwpsn  file "C:/ti/ccs1260/ccs/tools/compiler/ti-cgt-c2000_22.6.1.LTS/include/_defs.h",line 339,colu
    2131 00000000 A3C4          MOVL      P,*+XAR4[0]           ; [CPU_ALU] |339| 
    2132 00000001 06D4          MOVL      ACC,*+XAR4[2]         ; [CPU_ALU] |339| 
    2133 00000002 28AC          MOV       T,#48                 ; [CPU_ALU] |339| 
         00000003 0030 
    2134 00000004 565B          LSR64     ACC:P,T               ; [CPU_ALU] |339| 
    2135 00000005 18AB          AND       PL,#0x7ff0            ; [CPU_ALU] |339| 
         00000006 7FF0 
    2136 00000007 80AB          MOVZ      AR7,PL                ; [CPU_ALU] |339| 
    2137 00000008 FF20          MOV       ACC,#32752            ; [CPU_ALU] |339| 
         00000009 7FF0 
    2138 0000000a BE00          MOVB      XAR6,#0               ; [CPU_ALU] |339| 
    2139 0000000b 0FA7          CMPL      ACC,XAR7              ; [CPU_ALU] |339| 
    2140 0000000c 56B0          MOVB      XAR6,#1,NEQ           ; [CPU_ALU] |339| 
         0000000d 01A6 
    2141 0000000e 92A6          MOV       AL,AR6                ; [CPU_ALU] |339| 
    2142              $C$DW$152       .dwtag  DW_TAG_TI_branch
    2143                      .dwattr $C$DW$152, DW_AT_low_pc(0x00)
    2144                      .dwattr $C$DW$152, DW_AT_TI_return
    2145              
    2146 0000000f 0006          LRETR     ; [CPU_ALU] 
    2147                      ; return occurs ; [] 
    2148                      .dwattr $C$DW$149, DW_AT_TI_end_file("C:/ti/ccs1260/ccs/tools/compiler/ti-cgt-c2000_22.6.1.LTS/includ
    2149                      .dwattr $C$DW$149, DW_AT_TI_end_line(0x153)
    2150                      .dwattr $C$DW$149, DW_AT_TI_end_column(0x2f)
    2151                      .dwendentry
    2152                      .dwendtag $C$DW$149
    2153              
    2154 00000000               .sect   ".text:__isfinitef"
    2155                      .clink
    2156                      .global ||__isfinitef||
TMS320C2000 Assembler PC v22.6.1 Tue Jul  2 19:04:17 2024

Copyright (c) 1996-2018 Texas Instruments Incorporated
sfra_gui_scicomms_driverlib.asm                                      PAGE   42

    2157              
    2158              $C$DW$153       .dwtag  DW_TAG_subprogram
    2159                      .dwattr $C$DW$153, DW_AT_name("__isfinitef")
    2160                      .dwattr $C$DW$153, DW_AT_low_pc(||__isfinitef||)
    2161                      .dwattr $C$DW$153, DW_AT_high_pc(0x00)
    2162                      .dwattr $C$DW$153, DW_AT_linkage_name("__isfinitef")
    2163                      .dwattr $C$DW$153, DW_AT_external
    2164                      .dwattr $C$DW$153, DW_AT_type(*$C$DW$T$10)
    2165                      .dwattr $C$DW$153, DW_AT_decl_file("C:/ti/ccs1260/ccs/tools/compiler/ti-cgt-c2000_22.6.1.LTS/include/
    2166                      .dwattr $C$DW$153, DW_AT_decl_line(0x150)
    2167                      .dwattr $C$DW$153, DW_AT_decl_column(0x18)
    2168                      .dwattr $C$DW$153, DW_AT_TI_max_frame_size(-2)
    2169                      .dwpsn  file "C:/ti/ccs1260/ccs/tools/compiler/ti-cgt-c2000_22.6.1.LTS/include/_defs.h",line 337,colu
    2170              
    2171                      .dwfde $C$DW$CIE, ||__isfinitef||
    2172              $C$DW$154       .dwtag  DW_TAG_formal_parameter
    2173                      .dwattr $C$DW$154, DW_AT_name("f")
    2174                      .dwattr $C$DW$154, DW_AT_type(*$C$DW$T$16)
    2175                      .dwattr $C$DW$154, DW_AT_location[DW_OP_regx 0x2b]
    2176              
    2177              
    2178              ;***************************************************************
    2179              ;* FNAME: __isfinitef                   FR SIZE:   0           *
    2180              ;*                                                             *
    2181              ;* FUNCTION ENVIRONMENT                                        *
    2182              ;*                                                             *
    2183              ;* FUNCTION PROPERTIES                                         *
    2184              ;*                            0 Parameter,  0 Auto,  0 SOE     *
    2185              ;***************************************************************
    2186              
    2187              ||__isfinitef||:
    2188              ;* R0    assigned to f
    2189              $C$DW$155       .dwtag  DW_TAG_variable
    2190                      .dwattr $C$DW$155, DW_AT_name("f")
    2191                      .dwattr $C$DW$155, DW_AT_type(*$C$DW$T$100)
    2192                      .dwattr $C$DW$155, DW_AT_location[DW_OP_regx 0x2b]
    2193              
    2194                      .dwcfi  cfa_offset, -2
    2195                      .dwcfi  save_reg_to_mem, 26, 0
    2196                      .dwpsn  file "C:/ti/ccs1260/ccs/tools/compiler/ti-cgt-c2000_22.6.1.LTS/include/_defs.h",line 337,colu
    2197 00000000 BFAB          MOV32     P,R0H                 ; [CPU_FPU] |337| 
         00000001 0F12 
    2198 00000002 18AA          AND       PH,#0x7f80            ; [CPU_ALU] |337| 
         00000003 7F80 
    2199 00000004 80AA          MOVZ      AR7,PH                ; [CPU_ALU] |337| 
    2200 00000005 FF20          MOV       ACC,#32640            ; [CPU_ALU] |337| 
         00000006 7F80 
    2201 00000007 BE00          MOVB      XAR6,#0               ; [CPU_ALU] |337| 
    2202 00000008 0FA7          CMPL      ACC,XAR7              ; [CPU_ALU] |337| 
    2203 00000009 56B0          MOVB      XAR6,#1,NEQ           ; [CPU_ALU] |337| 
         0000000a 01A6 
    2204 0000000b 92A6          MOV       AL,AR6                ; [CPU_ALU] |337| 
    2205              $C$DW$156       .dwtag  DW_TAG_TI_branch
    2206                      .dwattr $C$DW$156, DW_AT_low_pc(0x00)
    2207                      .dwattr $C$DW$156, DW_AT_TI_return
TMS320C2000 Assembler PC v22.6.1 Tue Jul  2 19:04:17 2024

Copyright (c) 1996-2018 Texas Instruments Incorporated
sfra_gui_scicomms_driverlib.asm                                      PAGE   43

    2208              
    2209 0000000c 0006          LRETR     ; [CPU_ALU] 
    2210                      ; return occurs ; [] 
    2211                      .dwattr $C$DW$153, DW_AT_TI_end_file("C:/ti/ccs1260/ccs/tools/compiler/ti-cgt-c2000_22.6.1.LTS/includ
    2212                      .dwattr $C$DW$153, DW_AT_TI_end_line(0x151)
    2213                      .dwattr $C$DW$153, DW_AT_TI_end_column(0x2d)
    2214                      .dwendentry
    2215                      .dwendtag $C$DW$153
    2216              
    2217 00000000               .sect   ".text:__isfinite"
    2218                      .clink
    2219                      .global ||__isfinite||
    2220              
    2221              $C$DW$157       .dwtag  DW_TAG_subprogram
    2222                      .dwattr $C$DW$157, DW_AT_name("__isfinite")
    2223                      .dwattr $C$DW$157, DW_AT_low_pc(||__isfinite||)
    2224                      .dwattr $C$DW$157, DW_AT_high_pc(0x00)
    2225                      .dwattr $C$DW$157, DW_AT_linkage_name("__isfinite")
    2226                      .dwattr $C$DW$157, DW_AT_external
    2227                      .dwattr $C$DW$157, DW_AT_type(*$C$DW$T$10)
    2228                      .dwattr $C$DW$157, DW_AT_decl_file("C:/ti/ccs1260/ccs/tools/compiler/ti-cgt-c2000_22.6.1.LTS/include/
    2229                      .dwattr $C$DW$157, DW_AT_decl_line(0x14e)
    2230                      .dwattr $C$DW$157, DW_AT_decl_column(0x18)
    2231                      .dwattr $C$DW$157, DW_AT_TI_max_frame_size(-2)
    2232                      .dwpsn  file "C:/ti/ccs1260/ccs/tools/compiler/ti-cgt-c2000_22.6.1.LTS/include/_defs.h",line 335,colu
    2233              
    2234                      .dwfde $C$DW$CIE, ||__isfinite||
    2235              $C$DW$158       .dwtag  DW_TAG_formal_parameter
    2236                      .dwattr $C$DW$158, DW_AT_name("d")
    2237                      .dwattr $C$DW$158, DW_AT_type(*$C$DW$T$101)
    2238                      .dwattr $C$DW$158, DW_AT_location[DW_OP_reg12]
    2239              
    2240              
    2241              ;***************************************************************
    2242              ;* FNAME: __isfinite                    FR SIZE:   0           *
    2243              ;*                                                             *
    2244              ;* FUNCTION ENVIRONMENT                                        *
    2245              ;*                                                             *
    2246              ;* FUNCTION PROPERTIES                                         *
    2247              ;*                            0 Parameter,  0 Auto,  0 SOE     *
    2248              ;***************************************************************
    2249              
    2250              ||__isfinite||:
    2251              ;* AR4   assigned to d
    2252              $C$DW$159       .dwtag  DW_TAG_variable
    2253                      .dwattr $C$DW$159, DW_AT_name("d")
    2254                      .dwattr $C$DW$159, DW_AT_type(*$C$DW$T$102)
    2255                      .dwattr $C$DW$159, DW_AT_location[DW_OP_reg12]
    2256              
    2257                      .dwcfi  cfa_offset, -2
    2258                      .dwcfi  save_reg_to_mem, 26, 0
    2259                      .dwpsn  file "C:/ti/ccs1260/ccs/tools/compiler/ti-cgt-c2000_22.6.1.LTS/include/_defs.h",line 335,colu
    2260 00000000 A3C4          MOVL      P,*+XAR4[0]           ; [CPU_ALU] |335| 
    2261 00000001 06D4          MOVL      ACC,*+XAR4[2]         ; [CPU_ALU] |335| 
    2262 00000002 28AC          MOV       T,#48                 ; [CPU_ALU] |335| 
TMS320C2000 Assembler PC v22.6.1 Tue Jul  2 19:04:17 2024

Copyright (c) 1996-2018 Texas Instruments Incorporated
sfra_gui_scicomms_driverlib.asm                                      PAGE   44

         00000003 0030 
    2263 00000004 565B          LSR64     ACC:P,T               ; [CPU_ALU] |335| 
    2264 00000005 18AB          AND       PL,#0x7ff0            ; [CPU_ALU] |335| 
         00000006 7FF0 
    2265 00000007 80AB          MOVZ      AR7,PL                ; [CPU_ALU] |335| 
    2266 00000008 FF20          MOV       ACC,#32752            ; [CPU_ALU] |335| 
         00000009 7FF0 
    2267 0000000a BE00          MOVB      XAR6,#0               ; [CPU_ALU] |335| 
    2268 0000000b 0FA7          CMPL      ACC,XAR7              ; [CPU_ALU] |335| 
    2269 0000000c 56B0          MOVB      XAR6,#1,NEQ           ; [CPU_ALU] |335| 
         0000000d 01A6 
    2270 0000000e 92A6          MOV       AL,AR6                ; [CPU_ALU] |335| 
    2271              $C$DW$160       .dwtag  DW_TAG_TI_branch
    2272                      .dwattr $C$DW$160, DW_AT_low_pc(0x00)
    2273                      .dwattr $C$DW$160, DW_AT_TI_return
    2274              
    2275 0000000f 0006          LRETR     ; [CPU_ALU] 
    2276                      ; return occurs ; [] 
    2277                      .dwattr $C$DW$157, DW_AT_TI_end_file("C:/ti/ccs1260/ccs/tools/compiler/ti-cgt-c2000_22.6.1.LTS/includ
    2278                      .dwattr $C$DW$157, DW_AT_TI_end_line(0x14f)
    2279                      .dwattr $C$DW$157, DW_AT_TI_end_column(0x2e)
    2280                      .dwendentry
    2281                      .dwendtag $C$DW$157
    2282              
    2283 00000000               .sect   ".text:__fpclassifyl"
    2284                      .clink
    2285                      .global ||__fpclassifyl||
    2286              
    2287              $C$DW$161       .dwtag  DW_TAG_subprogram
    2288                      .dwattr $C$DW$161, DW_AT_name("__fpclassifyl")
    2289                      .dwattr $C$DW$161, DW_AT_low_pc(||__fpclassifyl||)
    2290                      .dwattr $C$DW$161, DW_AT_high_pc(0x00)
    2291                      .dwattr $C$DW$161, DW_AT_linkage_name("__fpclassifyl")
    2292                      .dwattr $C$DW$161, DW_AT_external
    2293                      .dwattr $C$DW$161, DW_AT_type(*$C$DW$T$10)
    2294                      .dwattr $C$DW$161, DW_AT_decl_file("C:/ti/ccs1260/ccs/tools/compiler/ti-cgt-c2000_22.6.1.LTS/include/
    2295                      .dwattr $C$DW$161, DW_AT_decl_line(0x1ae)
    2296                      .dwattr $C$DW$161, DW_AT_decl_column(0x18)
    2297                      .dwattr $C$DW$161, DW_AT_TI_max_frame_size(-10)
    2298                      .dwpsn  file "C:/ti/ccs1260/ccs/tools/compiler/ti-cgt-c2000_22.6.1.LTS/include/_defs.h",line 431,colu
    2299              
    2300                      .dwfde $C$DW$CIE, ||__fpclassifyl||
    2301              $C$DW$162       .dwtag  DW_TAG_formal_parameter
    2302                      .dwattr $C$DW$162, DW_AT_name("e")
    2303                      .dwattr $C$DW$162, DW_AT_type(*$C$DW$T$103)
    2304                      .dwattr $C$DW$162, DW_AT_location[DW_OP_reg12]
    2305              
    2306              
    2307              ;***************************************************************
    2308              ;* FNAME: __fpclassifyl                 FR SIZE:   8           *
    2309              ;*                                                             *
    2310              ;* FUNCTION ENVIRONMENT                                        *
    2311              ;*                                                             *
    2312              ;* FUNCTION PROPERTIES                                         *
    2313              ;*                            4 Parameter,  4 Auto,  0 SOE     *
TMS320C2000 Assembler PC v22.6.1 Tue Jul  2 19:04:17 2024

Copyright (c) 1996-2018 Texas Instruments Incorporated
sfra_gui_scicomms_driverlib.asm                                      PAGE   45

    2314              ;***************************************************************
    2315              
    2316              ||__fpclassifyl||:
    2317              $C$DW$163       .dwtag  DW_TAG_variable
    2318                      .dwattr $C$DW$163, DW_AT_name("e")
    2319                      .dwattr $C$DW$163, DW_AT_type(*$C$DW$T$18)
    2320                      .dwattr $C$DW$163, DW_AT_location[DW_OP_breg20 -8]
    2321              
    2322              ;* AR5   assigned to $O$C1
    2323              ;* AR4   assigned to e
    2324              $C$DW$164       .dwtag  DW_TAG_variable
    2325                      .dwattr $C$DW$164, DW_AT_name("e")
    2326                      .dwattr $C$DW$164, DW_AT_type(*$C$DW$T$104)
    2327                      .dwattr $C$DW$164, DW_AT_location[DW_OP_reg12]
    2328              
    2329                      .dwcfi  cfa_offset, -2
    2330                      .dwcfi  save_reg_to_mem, 26, 0
    2331 00000000 FE08          ADDB      SP,#8                 ; [CPU_ARAU] 
    2332                      .dwcfi  cfa_offset, -10
    2333 00000001 C4D4          MOVL      XAR6,*+XAR4[2]        ; [CPU_ALU] |431| 
    2334 00000002 06C4          MOVL      ACC,*+XAR4[0]         ; [CPU_ALU] |431| 
    2335 00000003 1E48          MOVL      *-SP[8],ACC           ; [CPU_ALU] |431| 
    2336 00000004 C246          MOVL      *-SP[6],XAR6          ; [CPU_ALU] |431| 
    2337                      .dwpsn  file "C:/ti/ccs1260/ccs/tools/compiler/ti-cgt-c2000_22.6.1.LTS/include/_defs.h",line 432,colu
    2338 00000005 8348          MOVL      XAR5,*-SP[8]          ; [CPU_ALU] |432| 
    2339 00000006 8A46          MOVL      XAR4,*-SP[6]          ; [CPU_ALU] |432| 
    2340                      .dwpsn  file "C:/ti/ccs1260/ccs/tools/compiler/ti-cgt-c2000_22.6.1.LTS/include/_defs.h",line 436,colu
    2341 00000007 28AC          MOV       T,#48                 ; [CPU_ALU] |436| 
         00000008 0030 
    2342 00000009 A0AB          MOVL      P,XAR5                ; [CPU_ALU] |436| 
    2343 0000000a A8A9          MOVL      ACC,XAR4              ; [CPU_ALU] |436| 
    2344 0000000b 565B          LSR64     ACC:P,T               ; [CPU_ALU] |436| 
    2345 0000000c 18AB          AND       PL,#0x7ff0            ; [CPU_ALU] |436| 
         0000000d 7FF0 
    2346 0000000e 88AB          MOVZ      AR6,PL                ; [CPU_ALU] |436| 
    2347 0000000f FF20          MOV       ACC,#32752            ; [CPU_ALU] |436| 
         00000010 7FF0 
    2348 00000011 0FA6          CMPL      ACC,XAR6              ; [CPU_ALU] |436| 
    2349 00000012 6016          B         ||$C$L11||,NEQ        ; [CPU_ALU] |436| 
    2350                      ; branchcc occurs ; [] |436| 
    2351 00000013 0200          MOVB      ACC,#0                ; [CPU_ALU] |436| 
    2352 00000014 1E44          MOVL      *-SP[4],ACC           ; [CPU_ALU] |436| 
    2353 00000015 2B42          MOV       *-SP[2],#0            ; [CPU_ALU] |436| 
    2354 00000016 2B41          MOV       *-SP[1],#0            ; [CPU_ALU] |436| 
    2355 00000017 A348          MOVL      P,*-SP[8]             ; [CPU_ALU] |436| 
    2356 00000018 0646          MOVL      ACC,*-SP[6]           ; [CPU_ALU] |436| 
    2357 00000019 18AB          AND       PL,#65535             ; [CPU_ALU] |436| 
         0000001a FFFF 
    2358 0000001b 18AA          AND       PH,#65535             ; [CPU_ALU] |436| 
         0000001c FFFF 
    2359 0000001d 18A9          AND       AL,#65535             ; [CPU_ALU] |436| 
         0000001e FFFF 
    2360 0000001f 910F          ANDB      AH,#15                ; [CPU_ALU] |436| 
    2361              $C$DW$165       .dwtag  DW_TAG_TI_branch
    2362                      .dwattr $C$DW$165, DW_AT_low_pc(0x00)
TMS320C2000 Assembler PC v22.6.1 Tue Jul  2 19:04:17 2024

Copyright (c) 1996-2018 Texas Instruments Incorporated
sfra_gui_scicomms_driverlib.asm                                      PAGE   46

    2363                      .dwattr $C$DW$165, DW_AT_name("__c28xabi_cmpull")
    2364                      .dwattr $C$DW$165, DW_AT_TI_call
    2365              
    2366 00000020 7640!         LCR       #||__c28xabi_cmpull|| ; [CPU_ALU] |436| 
         00000021 0000 
    2367                      ; call occurs [#||__c28xabi_cmpull||] ; [] |436| 
    2368 00000022 5200          CMPB      AL,#0                 ; [CPU_ALU] |436| 
    2369 00000023 6103          B         ||$C$L10||,EQ         ; [CPU_ALU] |436| 
    2370                      ; branchcc occurs ; [] |436| 
    2371 00000024 9A02          MOVB      AL,#2                 ; [CPU_ALU] |436| 
    2372 00000025 6F2D          B         ||$C$L14||,UNC        ; [CPU_ALU] |436| 
    2373                      ; branch occurs ; [] |436| 
    2374 00000026       ||$C$L10||:    
    2375 00000026 9A01          MOVB      AL,#1                 ; [CPU_ALU] |436| 
    2376 00000027 6F2B          B         ||$C$L14||,UNC        ; [CPU_ALU] |436| 
    2377                      ; branch occurs ; [] |436| 
    2378 00000028       ||$C$L11||:    
    2379 00000028 BE00          MOVB      XAR6,#0               ; [CPU_ALU] |436| 
    2380 00000029 A0AB          MOVL      P,XAR5                ; [CPU_ALU] |436| 
    2381 0000002a A8A9          MOVL      ACC,XAR4              ; [CPU_ALU] |436| 
    2382 0000002b 28AC          MOV       T,#52                 ; [CPU_ALU] |436| 
         0000002c 0034 
    2383 0000002d C244          MOVL      *-SP[4],XAR6          ; [CPU_ALU] |436| 
    2384 0000002e 2B42          MOV       *-SP[2],#0            ; [CPU_ALU] |436| 
    2385 0000002f 565B          LSR64     ACC:P,T               ; [CPU_ALU] |436| 
    2386 00000030 2B41          MOV       *-SP[1],#0            ; [CPU_FPU] |436| 
    2387 00000031 9000          ANDB      AL,#0                 ; [CPU_ALU] |436| 
    2388 00000032 9100          ANDB      AH,#0                 ; [CPU_ALU] |436| 
    2389 00000033 18AB          AND       PL,#2047              ; [CPU_ALU] |436| 
         00000034 07FF 
    2390 00000035 18AA          AND       PH,#0                 ; [CPU_ALU] |436| 
         00000036 0000 
    2391              $C$DW$166       .dwtag  DW_TAG_TI_branch
    2392                      .dwattr $C$DW$166, DW_AT_low_pc(0x00)
    2393                      .dwattr $C$DW$166, DW_AT_name("__c28xabi_cmpull")
    2394                      .dwattr $C$DW$166, DW_AT_TI_call
    2395              
    2396 00000037 7640!         LCR       #||__c28xabi_cmpull|| ; [CPU_ALU] |436| 
         00000038 0000 
    2397                      ; call occurs [#||__c28xabi_cmpull||] ; [] |436| 
    2398 00000039 5200          CMPB      AL,#0                 ; [CPU_ALU] |436| 
    2399 0000003a 6104          B         ||$C$L12||,EQ         ; [CPU_ALU] |436| 
    2400                      ; branchcc occurs ; [] |436| 
    2401 0000003b 28A9          MOV       AL,#-1                ; [CPU_ALU] |436| 
         0000003c FFFF 
    2402 0000003d 6F15          B         ||$C$L14||,UNC        ; [CPU_ALU] |436| 
    2403                      ; branch occurs ; [] |436| 
    2404 0000003e       ||$C$L12||:    
    2405 0000003e C244          MOVL      *-SP[4],XAR6          ; [CPU_ALU] |436| 
    2406 0000003f A8A9          MOVL      ACC,XAR4              ; [CPU_ALU] |436| 
    2407 00000040 A0AB          MOVL      P,XAR5                ; [CPU_ALU] |436| 
    2408 00000041 2B42          MOV       *-SP[2],#0            ; [CPU_ALU] |436| 
    2409 00000042 18A9          AND       AL,#65535             ; [CPU_ALU] |436| 
         00000043 FFFF 
    2410 00000044 910F          ANDB      AH,#15                ; [CPU_ALU] |436| 
TMS320C2000 Assembler PC v22.6.1 Tue Jul  2 19:04:17 2024

Copyright (c) 1996-2018 Texas Instruments Incorporated
sfra_gui_scicomms_driverlib.asm                                      PAGE   47

    2411 00000045 18AB          AND       PL,#65535             ; [CPU_ALU] |436| 
         00000046 FFFF 
    2412 00000047 18AA          AND       PH,#65535             ; [CPU_ALU] |436| 
         00000048 FFFF 
    2413 00000049 2B41          MOV       *-SP[1],#0            ; [CPU_FPU] |436| 
    2414              $C$DW$167       .dwtag  DW_TAG_TI_branch
    2415                      .dwattr $C$DW$167, DW_AT_low_pc(0x00)
    2416                      .dwattr $C$DW$167, DW_AT_name("__c28xabi_cmpull")
    2417                      .dwattr $C$DW$167, DW_AT_TI_call
    2418              
    2419 0000004a 7640!         LCR       #||__c28xabi_cmpull|| ; [CPU_ALU] |436| 
         0000004b 0000 
    2420                      ; call occurs [#||__c28xabi_cmpull||] ; [] |436| 
    2421 0000004c 5200          CMPB      AL,#0                 ; [CPU_ALU] |436| 
    2422 0000004d 6104          B         ||$C$L13||,EQ         ; [CPU_ALU] |436| 
    2423                      ; branchcc occurs ; [] |436| 
    2424 0000004e 28A9          MOV       AL,#-2                ; [CPU_ALU] |436| 
         0000004f FFFE 
    2425 00000050 6F02          B         ||$C$L14||,UNC        ; [CPU_ALU] |436| 
    2426                      ; branch occurs ; [] |436| 
    2427 00000051       ||$C$L13||:    
    2428 00000051 9A00          MOVB      AL,#0                 ; [CPU_ALU] |436| 
    2429 00000052       ||$C$L14||:    
    2430 00000052 FE88          SUBB      SP,#8                 ; [CPU_ARAU] 
    2431                      .dwcfi  cfa_offset, -2
    2432              $C$DW$168       .dwtag  DW_TAG_TI_branch
    2433                      .dwattr $C$DW$168, DW_AT_low_pc(0x00)
    2434                      .dwattr $C$DW$168, DW_AT_TI_return
    2435              
    2436 00000053 0006          LRETR     ; [CPU_ALU] 
    2437                      ; return occurs ; [] 
    2438                      .dwattr $C$DW$161, DW_AT_TI_end_file("C:/ti/ccs1260/ccs/tools/compiler/ti-cgt-c2000_22.6.1.LTS/includ
    2439                      .dwattr $C$DW$161, DW_AT_TI_end_line(0x1bd)
    2440                      .dwattr $C$DW$161, DW_AT_TI_end_column(0x01)
    2441                      .dwendentry
    2442                      .dwendtag $C$DW$161
    2443              
    2444 00000000               .sect   ".text:__fpclassifyf"
    2445                      .clink
    2446                      .global ||__fpclassifyf||
    2447              
    2448              $C$DW$169       .dwtag  DW_TAG_subprogram
    2449                      .dwattr $C$DW$169, DW_AT_name("__fpclassifyf")
    2450                      .dwattr $C$DW$169, DW_AT_low_pc(||__fpclassifyf||)
    2451                      .dwattr $C$DW$169, DW_AT_high_pc(0x00)
    2452                      .dwattr $C$DW$169, DW_AT_linkage_name("__fpclassifyf")
    2453                      .dwattr $C$DW$169, DW_AT_external
    2454                      .dwattr $C$DW$169, DW_AT_type(*$C$DW$T$10)
    2455                      .dwattr $C$DW$169, DW_AT_decl_file("C:/ti/ccs1260/ccs/tools/compiler/ti-cgt-c2000_22.6.1.LTS/include/
    2456                      .dwattr $C$DW$169, DW_AT_decl_line(0x18c)
    2457                      .dwattr $C$DW$169, DW_AT_decl_column(0x18)
    2458                      .dwattr $C$DW$169, DW_AT_TI_max_frame_size(-2)
    2459                      .dwpsn  file "C:/ti/ccs1260/ccs/tools/compiler/ti-cgt-c2000_22.6.1.LTS/include/_defs.h",line 397,colu
    2460              
    2461                      .dwfde $C$DW$CIE, ||__fpclassifyf||
TMS320C2000 Assembler PC v22.6.1 Tue Jul  2 19:04:17 2024

Copyright (c) 1996-2018 Texas Instruments Incorporated
sfra_gui_scicomms_driverlib.asm                                      PAGE   48

    2462              $C$DW$170       .dwtag  DW_TAG_formal_parameter
    2463                      .dwattr $C$DW$170, DW_AT_name("f")
    2464                      .dwattr $C$DW$170, DW_AT_type(*$C$DW$T$16)
    2465                      .dwattr $C$DW$170, DW_AT_location[DW_OP_regx 0x2b]
    2466              
    2467              
    2468              ;***************************************************************
    2469              ;* FNAME: __fpclassifyf                 FR SIZE:   0           *
    2470              ;*                                                             *
    2471              ;* FUNCTION ENVIRONMENT                                        *
    2472              ;*                                                             *
    2473              ;* FUNCTION PROPERTIES                                         *
    2474              ;*                            0 Parameter,  0 Auto,  0 SOE     *
    2475              ;***************************************************************
    2476              
    2477              ||__fpclassifyf||:
    2478              ;* PL    assigned to $O$K1
    2479              ;* R0    assigned to f
    2480              $C$DW$171       .dwtag  DW_TAG_variable
    2481                      .dwattr $C$DW$171, DW_AT_name("f")
    2482                      .dwattr $C$DW$171, DW_AT_type(*$C$DW$T$100)
    2483                      .dwattr $C$DW$171, DW_AT_location[DW_OP_regx 0x2b]
    2484              
    2485                      .dwcfi  cfa_offset, -2
    2486                      .dwcfi  save_reg_to_mem, 26, 0
    2487                      .dwpsn  file "C:/ti/ccs1260/ccs/tools/compiler/ti-cgt-c2000_22.6.1.LTS/include/_defs.h",line 398,colu
    2488 00000000 BFAB          MOV32     P,R0H                 ; [CPU_FPU] |398| 
         00000001 0F12 
    2489                      .dwpsn  file "C:/ti/ccs1260/ccs/tools/compiler/ti-cgt-c2000_22.6.1.LTS/include/_defs.h",line 402,colu
    2490 00000002 CCAA          AND       AL,PH,#0x7f80         ; [CPU_ALU] |402| 
         00000003 7F80 
    2491 00000004 88A9          MOVZ      AR6,AL                ; [CPU_ALU] |402| 
    2492 00000005 FF20          MOV       ACC,#32640            ; [CPU_ALU] |402| 
         00000006 7F80 
    2493 00000007 0FA6          CMPL      ACC,XAR6              ; [CPU_ALU] |402| 
    2494 00000008 6009          B         ||$C$L16||,NEQ        ; [CPU_ALU] |402| 
    2495                      ; branchcc occurs ; [] |402| 
    2496 00000009 A9A9          MOVL      ACC,P                 ; [CPU_ALU] |402| 
    2497 0000000a 917F          ANDB      AH,#127               ; [CPU_ALU] |402| 
    2498 0000000b FF58          TEST      ACC                   ; [CPU_ALU] |402| 
    2499 0000000c 6103          B         ||$C$L15||,EQ         ; [CPU_ALU] |402| 
    2500                      ; branchcc occurs ; [] |402| 
    2501                      .dwcfi  remember_state
    2502 0000000d 9A02          MOVB      AL,#2                 ; [CPU_ALU] |402| 
    2503              $C$DW$172       .dwtag  DW_TAG_TI_branch
    2504                      .dwattr $C$DW$172, DW_AT_low_pc(0x00)
    2505                      .dwattr $C$DW$172, DW_AT_TI_return
    2506              
    2507 0000000e 0006          LRETR     ; [CPU_ALU] 
    2508                      ; return occurs ; [] 
    2509                      .dwcfi  restore_state
    2510 0000000f       ||$C$L15||:    
    2511                      .dwcfi  remember_state
    2512 0000000f 9A01          MOVB      AL,#1                 ; [CPU_ALU] |402| 
    2513              $C$DW$173       .dwtag  DW_TAG_TI_branch
TMS320C2000 Assembler PC v22.6.1 Tue Jul  2 19:04:17 2024

Copyright (c) 1996-2018 Texas Instruments Incorporated
sfra_gui_scicomms_driverlib.asm                                      PAGE   49

    2514                      .dwattr $C$DW$173, DW_AT_low_pc(0x00)
    2515                      .dwattr $C$DW$173, DW_AT_TI_return
    2516              
    2517 00000010 0006          LRETR     ; [CPU_ALU] 
    2518                      ; return occurs ; [] 
    2519                      .dwcfi  restore_state
    2520 00000011       ||$C$L16||:    
    2521 00000011 A9A9          MOVL      ACC,P                 ; [CPU_ALU] |402| 
    2522 00000012 28AC          MOV       T,#23                 ; [CPU_ALU] |402| 
         00000013 0017 
    2523 00000014 5622          LSRL      ACC,T                 ; [CPU_ALU] |402| 
    2524 00000015 90FF          ANDB      AL,#0xff              ; [CPU_ALU] |402| 
    2525 00000016 6104          B         ||$C$L17||,EQ         ; [CPU_ALU] |402| 
    2526                      ; branchcc occurs ; [] |402| 
    2527                      .dwcfi  remember_state
    2528 00000017 28A9          MOV       AL,#-1                ; [CPU_ALU] |402| 
         00000018 FFFF 
    2529              $C$DW$174       .dwtag  DW_TAG_TI_branch
    2530                      .dwattr $C$DW$174, DW_AT_low_pc(0x00)
    2531                      .dwattr $C$DW$174, DW_AT_TI_return
    2532              
    2533 00000019 0006          LRETR     ; [CPU_ALU] 
    2534                      ; return occurs ; [] 
    2535                      .dwcfi  restore_state
    2536 0000001a       ||$C$L17||:    
    2537 0000001a A9A9          MOVL      ACC,P                 ; [CPU_ALU] |402| 
    2538 0000001b 917F          ANDB      AH,#127               ; [CPU_ALU] |402| 
    2539 0000001c FF58          TEST      ACC                   ; [CPU_ALU] |402| 
    2540 0000001d 6104          B         ||$C$L18||,EQ         ; [CPU_ALU] |402| 
    2541                      ; branchcc occurs ; [] |402| 
    2542                      .dwcfi  remember_state
    2543 0000001e 28A9          MOV       AL,#-2                ; [CPU_ALU] |402| 
         0000001f FFFE 
    2544              $C$DW$175       .dwtag  DW_TAG_TI_branch
    2545                      .dwattr $C$DW$175, DW_AT_low_pc(0x00)
    2546                      .dwattr $C$DW$175, DW_AT_TI_return
    2547              
    2548 00000020 0006          LRETR     ; [CPU_ALU] 
    2549                      ; return occurs ; [] 
    2550                      .dwcfi  restore_state
    2551 00000021       ||$C$L18||:    
    2552 00000021 9A00          MOVB      AL,#0                 ; [CPU_ALU] |402| 
    2553              $C$DW$176       .dwtag  DW_TAG_TI_branch
    2554                      .dwattr $C$DW$176, DW_AT_low_pc(0x00)
    2555                      .dwattr $C$DW$176, DW_AT_TI_return
    2556              
    2557 00000022 0006          LRETR     ; [CPU_ALU] 
    2558                      ; return occurs ; [] 
    2559                      .dwattr $C$DW$169, DW_AT_TI_end_file("C:/ti/ccs1260/ccs/tools/compiler/ti-cgt-c2000_22.6.1.LTS/includ
    2560                      .dwattr $C$DW$169, DW_AT_TI_end_line(0x19b)
    2561                      .dwattr $C$DW$169, DW_AT_TI_end_column(0x01)
    2562                      .dwendentry
    2563                      .dwendtag $C$DW$169
    2564              
    2565 00000000               .sect   ".text:__fpclassify"
TMS320C2000 Assembler PC v22.6.1 Tue Jul  2 19:04:17 2024

Copyright (c) 1996-2018 Texas Instruments Incorporated
sfra_gui_scicomms_driverlib.asm                                      PAGE   50

    2566                      .clink
    2567                      .global ||__fpclassify||
    2568              
    2569              $C$DW$177       .dwtag  DW_TAG_subprogram
    2570                      .dwattr $C$DW$177, DW_AT_name("__fpclassify")
    2571                      .dwattr $C$DW$177, DW_AT_low_pc(||__fpclassify||)
    2572                      .dwattr $C$DW$177, DW_AT_high_pc(0x00)
    2573                      .dwattr $C$DW$177, DW_AT_linkage_name("__fpclassify")
    2574                      .dwattr $C$DW$177, DW_AT_external
    2575                      .dwattr $C$DW$177, DW_AT_type(*$C$DW$T$10)
    2576                      .dwattr $C$DW$177, DW_AT_decl_file("C:/ti/ccs1260/ccs/tools/compiler/ti-cgt-c2000_22.6.1.LTS/include/
    2577                      .dwattr $C$DW$177, DW_AT_decl_line(0x19d)
    2578                      .dwattr $C$DW$177, DW_AT_decl_column(0x18)
    2579                      .dwattr $C$DW$177, DW_AT_TI_max_frame_size(-10)
    2580                      .dwpsn  file "C:/ti/ccs1260/ccs/tools/compiler/ti-cgt-c2000_22.6.1.LTS/include/_defs.h",line 414,colu
    2581              
    2582                      .dwfde $C$DW$CIE, ||__fpclassify||
    2583              $C$DW$178       .dwtag  DW_TAG_formal_parameter
    2584                      .dwattr $C$DW$178, DW_AT_name("d")
    2585                      .dwattr $C$DW$178, DW_AT_type(*$C$DW$T$101)
    2586                      .dwattr $C$DW$178, DW_AT_location[DW_OP_reg12]
    2587              
    2588              
    2589              ;***************************************************************
    2590              ;* FNAME: __fpclassify                  FR SIZE:   8           *
    2591              ;*                                                             *
    2592              ;* FUNCTION ENVIRONMENT                                        *
    2593              ;*                                                             *
    2594              ;* FUNCTION PROPERTIES                                         *
    2595              ;*                            4 Parameter,  4 Auto,  0 SOE     *
    2596              ;***************************************************************
    2597              
    2598              ||__fpclassify||:
    2599              $C$DW$179       .dwtag  DW_TAG_variable
    2600                      .dwattr $C$DW$179, DW_AT_name("d")
    2601                      .dwattr $C$DW$179, DW_AT_type(*$C$DW$T$17)
    2602                      .dwattr $C$DW$179, DW_AT_location[DW_OP_breg20 -8]
    2603              
    2604              ;* AR5   assigned to $O$C1
    2605              ;* AR4   assigned to d
    2606              $C$DW$180       .dwtag  DW_TAG_variable
    2607                      .dwattr $C$DW$180, DW_AT_name("d")
    2608                      .dwattr $C$DW$180, DW_AT_type(*$C$DW$T$102)
    2609                      .dwattr $C$DW$180, DW_AT_location[DW_OP_reg12]
    2610              
    2611                      .dwcfi  cfa_offset, -2
    2612                      .dwcfi  save_reg_to_mem, 26, 0
    2613 00000000 FE08          ADDB      SP,#8                 ; [CPU_ARAU] 
    2614                      .dwcfi  cfa_offset, -10
    2615 00000001 C4D4          MOVL      XAR6,*+XAR4[2]        ; [CPU_ALU] |414| 
    2616 00000002 06C4          MOVL      ACC,*+XAR4[0]         ; [CPU_ALU] |414| 
    2617 00000003 1E48          MOVL      *-SP[8],ACC           ; [CPU_ALU] |414| 
    2618 00000004 C246          MOVL      *-SP[6],XAR6          ; [CPU_ALU] |414| 
    2619                      .dwpsn  file "C:/ti/ccs1260/ccs/tools/compiler/ti-cgt-c2000_22.6.1.LTS/include/_defs.h",line 415,colu
    2620 00000005 8348          MOVL      XAR5,*-SP[8]          ; [CPU_ALU] |415| 
TMS320C2000 Assembler PC v22.6.1 Tue Jul  2 19:04:17 2024

Copyright (c) 1996-2018 Texas Instruments Incorporated
sfra_gui_scicomms_driverlib.asm                                      PAGE   51

    2621 00000006 8A46          MOVL      XAR4,*-SP[6]          ; [CPU_ALU] |415| 
    2622                      .dwpsn  file "C:/ti/ccs1260/ccs/tools/compiler/ti-cgt-c2000_22.6.1.LTS/include/_defs.h",line 419,colu
    2623 00000007 28AC          MOV       T,#48                 ; [CPU_ALU] |419| 
         00000008 0030 
    2624 00000009 A0AB          MOVL      P,XAR5                ; [CPU_ALU] |419| 
    2625 0000000a A8A9          MOVL      ACC,XAR4              ; [CPU_ALU] |419| 
    2626 0000000b 565B          LSR64     ACC:P,T               ; [CPU_ALU] |419| 
    2627 0000000c 18AB          AND       PL,#0x7ff0            ; [CPU_ALU] |419| 
         0000000d 7FF0 
    2628 0000000e 88AB          MOVZ      AR6,PL                ; [CPU_ALU] |419| 
    2629 0000000f FF20          MOV       ACC,#32752            ; [CPU_ALU] |419| 
         00000010 7FF0 
    2630 00000011 0FA6          CMPL      ACC,XAR6              ; [CPU_ALU] |419| 
    2631 00000012 6016          B         ||$C$L20||,NEQ        ; [CPU_ALU] |419| 
    2632                      ; branchcc occurs ; [] |419| 
    2633 00000013 0200          MOVB      ACC,#0                ; [CPU_ALU] |419| 
    2634 00000014 1E44          MOVL      *-SP[4],ACC           ; [CPU_ALU] |419| 
    2635 00000015 2B42          MOV       *-SP[2],#0            ; [CPU_ALU] |419| 
    2636 00000016 2B41          MOV       *-SP[1],#0            ; [CPU_ALU] |419| 
    2637 00000017 A348          MOVL      P,*-SP[8]             ; [CPU_ALU] |419| 
    2638 00000018 0646          MOVL      ACC,*-SP[6]           ; [CPU_ALU] |419| 
    2639 00000019 18AB          AND       PL,#65535             ; [CPU_ALU] |419| 
         0000001a FFFF 
    2640 0000001b 18AA          AND       PH,#65535             ; [CPU_ALU] |419| 
         0000001c FFFF 
    2641 0000001d 18A9          AND       AL,#65535             ; [CPU_ALU] |419| 
         0000001e FFFF 
    2642 0000001f 910F          ANDB      AH,#15                ; [CPU_ALU] |419| 
    2643              $C$DW$181       .dwtag  DW_TAG_TI_branch
    2644                      .dwattr $C$DW$181, DW_AT_low_pc(0x00)
    2645                      .dwattr $C$DW$181, DW_AT_name("__c28xabi_cmpull")
    2646                      .dwattr $C$DW$181, DW_AT_TI_call
    2647              
    2648 00000020 7640!         LCR       #||__c28xabi_cmpull|| ; [CPU_ALU] |419| 
         00000021 0000 
    2649                      ; call occurs [#||__c28xabi_cmpull||] ; [] |419| 
    2650 00000022 5200          CMPB      AL,#0                 ; [CPU_ALU] |419| 
    2651 00000023 6103          B         ||$C$L19||,EQ         ; [CPU_ALU] |419| 
    2652                      ; branchcc occurs ; [] |419| 
    2653 00000024 9A02          MOVB      AL,#2                 ; [CPU_ALU] |419| 
    2654 00000025 6F2D          B         ||$C$L23||,UNC        ; [CPU_ALU] |419| 
    2655                      ; branch occurs ; [] |419| 
    2656 00000026       ||$C$L19||:    
    2657 00000026 9A01          MOVB      AL,#1                 ; [CPU_ALU] |419| 
    2658 00000027 6F2B          B         ||$C$L23||,UNC        ; [CPU_ALU] |419| 
    2659                      ; branch occurs ; [] |419| 
    2660 00000028       ||$C$L20||:    
    2661 00000028 BE00          MOVB      XAR6,#0               ; [CPU_ALU] |419| 
    2662 00000029 A0AB          MOVL      P,XAR5                ; [CPU_ALU] |419| 
    2663 0000002a A8A9          MOVL      ACC,XAR4              ; [CPU_ALU] |419| 
    2664 0000002b 28AC          MOV       T,#52                 ; [CPU_ALU] |419| 
         0000002c 0034 
    2665 0000002d C244          MOVL      *-SP[4],XAR6          ; [CPU_ALU] |419| 
    2666 0000002e 2B42          MOV       *-SP[2],#0            ; [CPU_ALU] |419| 
    2667 0000002f 565B          LSR64     ACC:P,T               ; [CPU_ALU] |419| 
TMS320C2000 Assembler PC v22.6.1 Tue Jul  2 19:04:17 2024

Copyright (c) 1996-2018 Texas Instruments Incorporated
sfra_gui_scicomms_driverlib.asm                                      PAGE   52

    2668 00000030 2B41          MOV       *-SP[1],#0            ; [CPU_FPU] |419| 
    2669 00000031 9000          ANDB      AL,#0                 ; [CPU_ALU] |419| 
    2670 00000032 9100          ANDB      AH,#0                 ; [CPU_ALU] |419| 
    2671 00000033 18AB          AND       PL,#2047              ; [CPU_ALU] |419| 
         00000034 07FF 
    2672 00000035 18AA          AND       PH,#0                 ; [CPU_ALU] |419| 
         00000036 0000 
    2673              $C$DW$182       .dwtag  DW_TAG_TI_branch
    2674                      .dwattr $C$DW$182, DW_AT_low_pc(0x00)
    2675                      .dwattr $C$DW$182, DW_AT_name("__c28xabi_cmpull")
    2676                      .dwattr $C$DW$182, DW_AT_TI_call
    2677              
    2678 00000037 7640!         LCR       #||__c28xabi_cmpull|| ; [CPU_ALU] |419| 
         00000038 0000 
    2679                      ; call occurs [#||__c28xabi_cmpull||] ; [] |419| 
    2680 00000039 5200          CMPB      AL,#0                 ; [CPU_ALU] |419| 
    2681 0000003a 6104          B         ||$C$L21||,EQ         ; [CPU_ALU] |419| 
    2682                      ; branchcc occurs ; [] |419| 
    2683 0000003b 28A9          MOV       AL,#-1                ; [CPU_ALU] |419| 
         0000003c FFFF 
    2684 0000003d 6F15          B         ||$C$L23||,UNC        ; [CPU_ALU] |419| 
    2685                      ; branch occurs ; [] |419| 
    2686 0000003e       ||$C$L21||:    
    2687 0000003e C244          MOVL      *-SP[4],XAR6          ; [CPU_ALU] |419| 
    2688 0000003f A8A9          MOVL      ACC,XAR4              ; [CPU_ALU] |419| 
    2689 00000040 A0AB          MOVL      P,XAR5                ; [CPU_ALU] |419| 
    2690 00000041 2B42          MOV       *-SP[2],#0            ; [CPU_ALU] |419| 
    2691 00000042 18A9          AND       AL,#65535             ; [CPU_ALU] |419| 
         00000043 FFFF 
    2692 00000044 910F          ANDB      AH,#15                ; [CPU_ALU] |419| 
    2693 00000045 18AB          AND       PL,#65535             ; [CPU_ALU] |419| 
         00000046 FFFF 
    2694 00000047 18AA          AND       PH,#65535             ; [CPU_ALU] |419| 
         00000048 FFFF 
    2695 00000049 2B41          MOV       *-SP[1],#0            ; [CPU_FPU] |419| 
    2696              $C$DW$183       .dwtag  DW_TAG_TI_branch
    2697                      .dwattr $C$DW$183, DW_AT_low_pc(0x00)
    2698                      .dwattr $C$DW$183, DW_AT_name("__c28xabi_cmpull")
    2699                      .dwattr $C$DW$183, DW_AT_TI_call
    2700              
    2701 0000004a 7640!         LCR       #||__c28xabi_cmpull|| ; [CPU_ALU] |419| 
         0000004b 0000 
    2702                      ; call occurs [#||__c28xabi_cmpull||] ; [] |419| 
    2703 0000004c 5200          CMPB      AL,#0                 ; [CPU_ALU] |419| 
    2704 0000004d 6104          B         ||$C$L22||,EQ         ; [CPU_ALU] |419| 
    2705                      ; branchcc occurs ; [] |419| 
    2706 0000004e 28A9          MOV       AL,#-2                ; [CPU_ALU] |419| 
         0000004f FFFE 
    2707 00000050 6F02          B         ||$C$L23||,UNC        ; [CPU_ALU] |419| 
    2708                      ; branch occurs ; [] |419| 
    2709 00000051       ||$C$L22||:    
    2710 00000051 9A00          MOVB      AL,#0                 ; [CPU_ALU] |419| 
    2711 00000052       ||$C$L23||:    
    2712 00000052 FE88          SUBB      SP,#8                 ; [CPU_ARAU] 
    2713                      .dwcfi  cfa_offset, -2
TMS320C2000 Assembler PC v22.6.1 Tue Jul  2 19:04:17 2024

Copyright (c) 1996-2018 Texas Instruments Incorporated
sfra_gui_scicomms_driverlib.asm                                      PAGE   53

    2714              $C$DW$184       .dwtag  DW_TAG_TI_branch
    2715                      .dwattr $C$DW$184, DW_AT_low_pc(0x00)
    2716                      .dwattr $C$DW$184, DW_AT_TI_return
    2717              
    2718 00000053 0006          LRETR     ; [CPU_ALU] 
    2719                      ; return occurs ; [] 
    2720                      .dwattr $C$DW$177, DW_AT_TI_end_file("C:/ti/ccs1260/ccs/tools/compiler/ti-cgt-c2000_22.6.1.LTS/includ
    2721                      .dwattr $C$DW$177, DW_AT_TI_end_line(0x1ac)
    2722                      .dwattr $C$DW$177, DW_AT_TI_end_column(0x01)
    2723                      .dwendentry
    2724                      .dwendtag $C$DW$177
    2725              
    2726 00000000               .sect   ".text:SFRA_GUI_spareTsk08"
    2727                      .clink
    2728                      .global ||SFRA_GUI_spareTsk08||
    2729              
    2730              $C$DW$185       .dwtag  DW_TAG_subprogram
    2731                      .dwattr $C$DW$185, DW_AT_name("SFRA_GUI_spareTsk08")
    2732                      .dwattr $C$DW$185, DW_AT_low_pc(||SFRA_GUI_spareTsk08||)
    2733                      .dwattr $C$DW$185, DW_AT_high_pc(0x00)
    2734                      .dwattr $C$DW$185, DW_AT_linkage_name("SFRA_GUI_spareTsk08")
    2735                      .dwattr $C$DW$185, DW_AT_external
    2736                      .dwattr $C$DW$185, DW_AT_decl_file("../sfra_gui_scicomms_driverlib.c")
    2737                      .dwattr $C$DW$185, DW_AT_decl_line(0x2f4)
    2738                      .dwattr $C$DW$185, DW_AT_decl_column(0x06)
    2739                      .dwattr $C$DW$185, DW_AT_TI_max_frame_size(-2)
    2740                      .dwpsn  file "../sfra_gui_scicomms_driverlib.c",line 757,column 1,is_stmt,address ||SFRA_GUI_spareTsk
    2741              
    2742                      .dwfde $C$DW$CIE, ||SFRA_GUI_spareTsk08||
    2743              
    2744              ;***************************************************************
    2745              ;* FNAME: SFRA_GUI_spareTsk08           FR SIZE:   0           *
    2746              ;*                                                             *
    2747              ;* FUNCTION ENVIRONMENT                                        *
    2748              ;*                                                             *
    2749              ;* FUNCTION PROPERTIES                                         *
    2750              ;*                            0 Parameter,  0 Auto,  0 SOE     *
    2751              ;***************************************************************
    2752              
    2753 00000000       ||SFRA_GUI_spareTsk08||:
    2754                      .dwcfi  cfa_offset, -2
    2755                      .dwcfi  save_reg_to_mem, 26, 0
    2756 00000000 761F!         MOVW      DP,#||SFRA_GUI_taskDoneFlag|| ; [CPU_ARAU] 
         00000001 0000 
    2757                      .dwpsn  file "../sfra_gui_scicomms_driverlib.c",line 761,column 5,is_stmt,isa 0
    2758 00000002 56BF!         MOVB      @||SFRA_GUI_taskDoneFlag||,#1,UNC ; [CPU_ALU] |761| 
         00000003 0100 
    2759              $C$DW$186       .dwtag  DW_TAG_TI_branch
    2760                      .dwattr $C$DW$186, DW_AT_low_pc(0x00)
    2761                      .dwattr $C$DW$186, DW_AT_TI_return
    2762              
    2763 00000004 0006          LRETR     ; [CPU_ALU] 
    2764                      ; return occurs ; [] 
    2765                      .dwattr $C$DW$185, DW_AT_TI_end_file("../sfra_gui_scicomms_driverlib.c")
    2766                      .dwattr $C$DW$185, DW_AT_TI_end_line(0x2fa)
TMS320C2000 Assembler PC v22.6.1 Tue Jul  2 19:04:17 2024

Copyright (c) 1996-2018 Texas Instruments Incorporated
sfra_gui_scicomms_driverlib.asm                                      PAGE   54

    2767                      .dwattr $C$DW$185, DW_AT_TI_end_column(0x01)
    2768                      .dwendentry
    2769                      .dwendtag $C$DW$185
    2770              
    2771 00000000               .sect   ".text:SFRA_GUI_setText"
    2772                      .clink
    2773                      .global ||SFRA_GUI_setText||
    2774              
    2775              $C$DW$187       .dwtag  DW_TAG_subprogram
    2776                      .dwattr $C$DW$187, DW_AT_name("SFRA_GUI_setText")
    2777                      .dwattr $C$DW$187, DW_AT_low_pc(||SFRA_GUI_setText||)
    2778                      .dwattr $C$DW$187, DW_AT_high_pc(0x00)
    2779                      .dwattr $C$DW$187, DW_AT_linkage_name("SFRA_GUI_setText")
    2780                      .dwattr $C$DW$187, DW_AT_external
    2781                      .dwattr $C$DW$187, DW_AT_decl_file("../sfra_gui_scicomms_driverlib.c")
    2782                      .dwattr $C$DW$187, DW_AT_decl_line(0x27d)
    2783                      .dwattr $C$DW$187, DW_AT_decl_column(0x06)
    2784                      .dwattr $C$DW$187, DW_AT_TI_max_frame_size(-2)
    2785                      .dwpsn  file "../sfra_gui_scicomms_driverlib.c",line 638,column 1,is_stmt,address ||SFRA_GUI_setText|
    2786              
    2787                      .dwfde $C$DW$CIE, ||SFRA_GUI_setText||
    2788              
    2789              ;***************************************************************
    2790              ;* FNAME: SFRA_GUI_setText              FR SIZE:   0           *
    2791              ;*                                                             *
    2792              ;* FUNCTION ENVIRONMENT                                        *
    2793              ;*                                                             *
    2794              ;* FUNCTION PROPERTIES                                         *
    2795              ;*                            0 Parameter,  0 Auto,  0 SOE     *
    2796              ;***************************************************************
    2797              
    2798 00000000       ||SFRA_GUI_setText||:
    2799              ;* AR5   assigned to $O$C1
    2800                      .dwcfi  cfa_offset, -2
    2801                      .dwcfi  save_reg_to_mem, 26, 0
    2802                      .dwpsn  file "../sfra_gui_scicomms_driverlib.c",line 639,column 5,is_stmt,isa 0
    2803 00000000 8F40!         MOVL      XAR5,#||SFRA_GUI_cmdPacket|| ; [CPU_ARAU] |639| 
         00000001 0000 
    2804 00000002 2901          CLRC      SXM                   ; [CPU_ALU] 
    2805 00000003 8F00!         MOVL      XAR4,#||SFRA_GUI_varSetTxtList|| ; [CPU_ARAU] |639| 
         00000004 0000 
    2806 00000005 5603          MOV       ACC,*+XAR5[1] << 1    ; [CPU_ALU] |639| 
         00000006 01CD 
    2807 00000007 5601          ADDL      XAR4,ACC              ; [CPU_ALU] |639| 
         00000008 00A4 
    2808 00000009 8AC4          MOVL      XAR4,*+XAR4[0]        ; [CPU_ALU] |639| 
    2809 0000000a 92D5          MOV       AL,*+XAR5[2]          ; [CPU_ALU] |639| 
    2810 0000000b 761F!         MOVW      DP,#||SFRA_GUI_taskDoneFlag|| ; [CPU_ARAU] 
         0000000c 0000 
    2811 0000000d 96C4          MOV       *+XAR4[0],AL          ; [CPU_ALU] |639| 
    2812                      .dwpsn  file "../sfra_gui_scicomms_driverlib.c",line 644,column 5,is_stmt,isa 0
    2813 0000000e 56BF!         MOVB      @||SFRA_GUI_taskDoneFlag||,#1,UNC ; [CPU_ALU] |644| 
         0000000f 0100 
    2814              $C$DW$188       .dwtag  DW_TAG_TI_branch
    2815                      .dwattr $C$DW$188, DW_AT_low_pc(0x00)
TMS320C2000 Assembler PC v22.6.1 Tue Jul  2 19:04:17 2024

Copyright (c) 1996-2018 Texas Instruments Incorporated
sfra_gui_scicomms_driverlib.asm                                      PAGE   55

    2816                      .dwattr $C$DW$188, DW_AT_TI_return
    2817              
    2818 00000010 0006          LRETR     ; [CPU_ALU] 
    2819                      ; return occurs ; [] 
    2820                      .dwattr $C$DW$187, DW_AT_TI_end_file("../sfra_gui_scicomms_driverlib.c")
    2821                      .dwattr $C$DW$187, DW_AT_TI_end_line(0x285)
    2822                      .dwattr $C$DW$187, DW_AT_TI_end_column(0x01)
    2823                      .dwendentry
    2824                      .dwendtag $C$DW$187
    2825              
    2826 00000000               .sect   ".text:SFRA_GUI_setSlider"
    2827                      .clink
    2828                      .global ||SFRA_GUI_setSlider||
    2829              
    2830              $C$DW$189       .dwtag  DW_TAG_subprogram
    2831                      .dwattr $C$DW$189, DW_AT_name("SFRA_GUI_setSlider")
    2832                      .dwattr $C$DW$189, DW_AT_low_pc(||SFRA_GUI_setSlider||)
    2833                      .dwattr $C$DW$189, DW_AT_high_pc(0x00)
    2834                      .dwattr $C$DW$189, DW_AT_linkage_name("SFRA_GUI_setSlider")
    2835                      .dwattr $C$DW$189, DW_AT_external
    2836                      .dwattr $C$DW$189, DW_AT_decl_file("../sfra_gui_scicomms_driverlib.c")
    2837                      .dwattr $C$DW$189, DW_AT_decl_line(0x297)
    2838                      .dwattr $C$DW$189, DW_AT_decl_column(0x06)
    2839                      .dwattr $C$DW$189, DW_AT_TI_max_frame_size(-2)
    2840                      .dwpsn  file "../sfra_gui_scicomms_driverlib.c",line 664,column 1,is_stmt,address ||SFRA_GUI_setSlide
    2841              
    2842                      .dwfde $C$DW$CIE, ||SFRA_GUI_setSlider||
    2843              
    2844              ;***************************************************************
    2845              ;* FNAME: SFRA_GUI_setSlider            FR SIZE:   0           *
    2846              ;*                                                             *
    2847              ;* FUNCTION ENVIRONMENT                                        *
    2848              ;*                                                             *
    2849              ;* FUNCTION PROPERTIES                                         *
    2850              ;*                            0 Parameter,  0 Auto,  0 SOE     *
    2851              ;***************************************************************
    2852              
    2853 00000000       ||SFRA_GUI_setSlider||:
    2854              ;* AR5   assigned to $O$C1
    2855                      .dwcfi  cfa_offset, -2
    2856                      .dwcfi  save_reg_to_mem, 26, 0
    2857                      .dwpsn  file "../sfra_gui_scicomms_driverlib.c",line 665,column 5,is_stmt,isa 0
    2858 00000000 8F40!         MOVL      XAR5,#||SFRA_GUI_cmdPacket|| ; [CPU_ARAU] |665| 
         00000001 0000 
    2859 00000002 2901          CLRC      SXM                   ; [CPU_ALU] 
    2860 00000003 8F00!         MOVL      XAR4,#||SFRA_GUI_varSetSldrList|| ; [CPU_ARAU] |665| 
         00000004 0000 
    2861 00000005 5603          MOV       ACC,*+XAR5[1] << 1    ; [CPU_ALU] |665| 
         00000006 01CD 
    2862 00000007 5601          ADDL      XAR4,ACC              ; [CPU_ALU] |665| 
         00000008 00A4 
    2863 00000009 8AC4          MOVL      XAR4,*+XAR4[0]        ; [CPU_ALU] |665| 
    2864 0000000a 92D5          MOV       AL,*+XAR5[2]          ; [CPU_ALU] |665| 
    2865 0000000b 761F!         MOVW      DP,#||SFRA_GUI_taskDoneFlag|| ; [CPU_ARAU] 
         0000000c 0000 
TMS320C2000 Assembler PC v22.6.1 Tue Jul  2 19:04:17 2024

Copyright (c) 1996-2018 Texas Instruments Incorporated
sfra_gui_scicomms_driverlib.asm                                      PAGE   56

    2866 0000000d 96C4          MOV       *+XAR4[0],AL          ; [CPU_ALU] |665| 
    2867                      .dwpsn  file "../sfra_gui_scicomms_driverlib.c",line 669,column 5,is_stmt,isa 0
    2868 0000000e 56BF!         MOVB      @||SFRA_GUI_taskDoneFlag||,#1,UNC ; [CPU_ALU] |669| 
         0000000f 0100 
    2869              $C$DW$190       .dwtag  DW_TAG_TI_branch
    2870                      .dwattr $C$DW$190, DW_AT_low_pc(0x00)
    2871                      .dwattr $C$DW$190, DW_AT_TI_return
    2872              
    2873 00000010 0006          LRETR     ; [CPU_ALU] 
    2874                      ; return occurs ; [] 
    2875                      .dwattr $C$DW$189, DW_AT_TI_end_file("../sfra_gui_scicomms_driverlib.c")
    2876                      .dwattr $C$DW$189, DW_AT_TI_end_line(0x29e)
    2877                      .dwattr $C$DW$189, DW_AT_TI_end_column(0x01)
    2878                      .dwendentry
    2879                      .dwendtag $C$DW$189
    2880              
    2881 00000000               .sect   ".text:SFRA_GUI_setData32"
    2882                      .clink
    2883                      .global ||SFRA_GUI_setData32||
    2884              
    2885              $C$DW$191       .dwtag  DW_TAG_subprogram
    2886                      .dwattr $C$DW$191, DW_AT_name("SFRA_GUI_setData32")
    2887                      .dwattr $C$DW$191, DW_AT_low_pc(||SFRA_GUI_setData32||)
    2888                      .dwattr $C$DW$191, DW_AT_high_pc(0x00)
    2889                      .dwattr $C$DW$191, DW_AT_linkage_name("SFRA_GUI_setData32")
    2890                      .dwattr $C$DW$191, DW_AT_external
    2891                      .dwattr $C$DW$191, DW_AT_decl_file("../sfra_gui_scicomms_driverlib.c")
    2892                      .dwattr $C$DW$191, DW_AT_decl_line(0x2d9)
    2893                      .dwattr $C$DW$191, DW_AT_decl_column(0x06)
    2894                      .dwattr $C$DW$191, DW_AT_TI_max_frame_size(-2)
    2895                      .dwpsn  file "../sfra_gui_scicomms_driverlib.c",line 730,column 1,is_stmt,address ||SFRA_GUI_setData3
    2896              
    2897                      .dwfde $C$DW$CIE, ||SFRA_GUI_setData32||
    2898              
    2899              ;***************************************************************
    2900              ;* FNAME: SFRA_GUI_setData32            FR SIZE:   0           *
    2901              ;*                                                             *
    2902              ;* FUNCTION ENVIRONMENT                                        *
    2903              ;*                                                             *
    2904              ;* FUNCTION PROPERTIES                                         *
    2905              ;*                            0 Parameter,  0 Auto,  0 SOE     *
    2906              ;***************************************************************
    2907              
    2908 00000000       ||SFRA_GUI_setData32||:
    2909              ;* AR4   assigned to $O$C1
    2910                      .dwcfi  cfa_offset, -2
    2911                      .dwcfi  save_reg_to_mem, 26, 0
    2912 00000000 761F!         MOVW      DP,#||SFRA_GUI_memSetPtr|| ; [CPU_ARAU] 
         00000001 0000 
    2913                      .dwpsn  file "../sfra_gui_scicomms_driverlib.c",line 731,column 5,is_stmt,isa 0
    2914 00000002 9200!         MOV       AL,@||SFRA_GUI_memSetPtr|| ; [CPU_ALU] |731| 
    2915 00000003 611B          B         ||$C$L24||,EQ         ; [CPU_ALU] |731| 
    2916                      ; branchcc occurs ; [] |731| 
    2917 00000004 5201          CMPB      AL,#1                 ; [CPU_ALU] |731| 
    2918 00000005 6023          B         ||$C$L26||,NEQ        ; [CPU_ALU] |731| 
TMS320C2000 Assembler PC v22.6.1 Tue Jul  2 19:04:17 2024

Copyright (c) 1996-2018 Texas Instruments Incorporated
sfra_gui_scicomms_driverlib.asm                                      PAGE   57

    2919                      ; branchcc occurs ; [] |731| 
    2920 00000006 761F!         MOVW      DP,#||SFRA_GUI_cmdPacket||+2 ; [CPU_ARAU] 
         00000007 0000 
    2921                      .dwpsn  file "../sfra_gui_scicomms_driverlib.c",line 741,column 13,is_stmt,isa 0
    2922 00000008 8F00!         MOVL      XAR4,#||SFRA_GUI_cmdPacket|| ; [CPU_ARAU] |741| 
         00000009 0000 
    2923 0000000a 8802!         MOVZ      AR6,@||SFRA_GUI_cmdPacket||+2 ; [CPU_ALU] |741| 
    2924 0000000b 2901          CLRC      SXM                   ; [CPU_ALU] 
    2925 0000000c 0ED4          MOVU      ACC,*+XAR4[2]         ; [CPU_ALU] |741| 
    2926 0000000d 761F!         MOVW      DP,#||SFRA_GUI_temp|| ; [CPU_ARAU] 
         0000000e 0000 
    2927                      .dwpsn  file "../sfra_gui_scicomms_driverlib.c",line 742,column 13,is_stmt,isa 0
    2928 0000000f FF3F          LSL       ACC,16                ; [CPU_ALU] |742| 
    2929                      .dwpsn  file "../sfra_gui_scicomms_driverlib.c",line 741,column 13,is_stmt,isa 0
    2930 00000010 C200!         MOVL      @||SFRA_GUI_temp||,XAR6 ; [CPU_ALU] |741| 
    2931                      .dwpsn  file "../sfra_gui_scicomms_driverlib.c",line 742,column 13,is_stmt,isa 0
    2932 00000011 5601!         ADDL      @||SFRA_GUI_memSetValue||,ACC ; [CPU_ALU] |742| 
         00000012 0000 
    2933                      .dwpsn  file "../sfra_gui_scicomms_driverlib.c",line 744,column 13,is_stmt,isa 0
    2934 00000013 5603          MOV       ACC,*+XAR4[1] << 1    ; [CPU_FPU] |744| 
         00000014 01CC 
    2935 00000015 8F00!         MOVL      XAR4,#||SFRA_GUI_dataSetList|| ; [CPU_ARAU] |744| 
         00000016 0000 
    2936 00000017 5601          ADDL      XAR4,ACC              ; [CPU_ALU] |744| 
         00000018 00A4 
    2937 00000019 8AC4          MOVL      XAR4,*+XAR4[0]        ; [CPU_ALU] |744| 
    2938 0000001a 0600!         MOVL      ACC,@||SFRA_GUI_memSetValue|| ; [CPU_ALU] |744| 
    2939                      .dwpsn  file "../sfra_gui_scicomms_driverlib.c",line 746,column 13,is_stmt,isa 0
    2940 0000001b 2B00!         MOV       @||SFRA_GUI_memSetPtr||,#0 ; [CPU_ALU] |746| 
    2941                      .dwpsn  file "../sfra_gui_scicomms_driverlib.c",line 744,column 13,is_stmt,isa 0
    2942 0000001c 1EC4          MOVL      *+XAR4[0],ACC         ; [CPU_ALU] |744| 
    2943                      .dwpsn  file "../sfra_gui_scicomms_driverlib.c",line 748,column 13,is_stmt,isa 0
    2944 0000001d 6F09          B         ||$C$L25||,UNC        ; [CPU_ALU] |748| 
    2945                      ; branch occurs ; [] |748| 
    2946 0000001e       ||$C$L24||:    
    2947 0000001e 761F!         MOVW      DP,#||SFRA_GUI_cmdPacket||+2 ; [CPU_ARAU] 
         0000001f 0000 
    2948                      .dwpsn  file "../sfra_gui_scicomms_driverlib.c",line 734,column 13,is_stmt,isa 0
    2949 00000020 0E02!         MOVU      ACC,@||SFRA_GUI_cmdPacket||+2 ; [CPU_ALU] |734| 
    2950 00000021 761F!         MOVW      DP,#||SFRA_GUI_memSetPtr|| ; [CPU_ARAU] 
         00000022 0000 
    2951                      .dwpsn  file "../sfra_gui_scicomms_driverlib.c",line 735,column 13,is_stmt,isa 0
    2952 00000023 56BF!         MOVB      @||SFRA_GUI_memSetPtr||,#1,UNC ; [CPU_ALU] |735| 
         00000024 0100 
    2953                      .dwpsn  file "../sfra_gui_scicomms_driverlib.c",line 734,column 13,is_stmt,isa 0
    2954 00000025 1E00!         MOVL      @||SFRA_GUI_memSetValue||,ACC ; [CPU_ALU] |734| 
    2955 00000026       ||$C$L25||:    
    2956                      .dwpsn  file "../sfra_gui_scicomms_driverlib.c",line 737,column 13,is_stmt,isa 0
    2957 00000026 56BF!         MOVB      @||SFRA_GUI_taskDoneFlag||,#1,UNC ; [CPU_ALU] |737| 
         00000027 0100 
    2958              ||$C$L26||:    
    2959              $C$DW$192       .dwtag  DW_TAG_TI_branch
    2960                      .dwattr $C$DW$192, DW_AT_low_pc(0x00)
    2961                      .dwattr $C$DW$192, DW_AT_TI_return
    2962              
TMS320C2000 Assembler PC v22.6.1 Tue Jul  2 19:04:17 2024

Copyright (c) 1996-2018 Texas Instruments Incorporated
sfra_gui_scicomms_driverlib.asm                                      PAGE   58

    2963 00000028 0006          LRETR     ; [CPU_ALU] 
    2964                      ; return occurs ; [] 
    2965                      .dwattr $C$DW$191, DW_AT_TI_end_file("../sfra_gui_scicomms_driverlib.c")
    2966                      .dwattr $C$DW$191, DW_AT_TI_end_line(0x2ef)
    2967                      .dwattr $C$DW$191, DW_AT_TI_end_column(0x01)
    2968                      .dwendentry
    2969                      .dwendtag $C$DW$191
    2970              
    2971 00000000               .sect   ".text:SFRA_GUI_setButton"
    2972                      .clink
    2973                      .global ||SFRA_GUI_setButton||
    2974              
    2975              $C$DW$193       .dwtag  DW_TAG_subprogram
    2976                      .dwattr $C$DW$193, DW_AT_name("SFRA_GUI_setButton")
    2977                      .dwattr $C$DW$193, DW_AT_low_pc(||SFRA_GUI_setButton||)
    2978                      .dwattr $C$DW$193, DW_AT_high_pc(0x00)
    2979                      .dwattr $C$DW$193, DW_AT_linkage_name("SFRA_GUI_setButton")
    2980                      .dwattr $C$DW$193, DW_AT_external
    2981                      .dwattr $C$DW$193, DW_AT_decl_file("../sfra_gui_scicomms_driverlib.c")
    2982                      .dwattr $C$DW$193, DW_AT_decl_line(0x28a)
    2983                      .dwattr $C$DW$193, DW_AT_decl_column(0x06)
    2984                      .dwattr $C$DW$193, DW_AT_TI_max_frame_size(-2)
    2985                      .dwpsn  file "../sfra_gui_scicomms_driverlib.c",line 651,column 1,is_stmt,address ||SFRA_GUI_setButto
    2986              
    2987                      .dwfde $C$DW$CIE, ||SFRA_GUI_setButton||
    2988              
    2989              ;***************************************************************
    2990              ;* FNAME: SFRA_GUI_setButton            FR SIZE:   0           *
    2991              ;*                                                             *
    2992              ;* FUNCTION ENVIRONMENT                                        *
    2993              ;*                                                             *
    2994              ;* FUNCTION PROPERTIES                                         *
    2995              ;*                            0 Parameter,  0 Auto,  0 SOE     *
    2996              ;***************************************************************
    2997              
    2998 00000000       ||SFRA_GUI_setButton||:
    2999              ;* AR5   assigned to $O$C1
    3000                      .dwcfi  cfa_offset, -2
    3001                      .dwcfi  save_reg_to_mem, 26, 0
    3002                      .dwpsn  file "../sfra_gui_scicomms_driverlib.c",line 652,column 5,is_stmt,isa 0
    3003 00000000 8F40!         MOVL      XAR5,#||SFRA_GUI_cmdPacket|| ; [CPU_ARAU] |652| 
         00000001 0000 
    3004 00000002 2901          CLRC      SXM                   ; [CPU_ALU] 
    3005 00000003 8F00!         MOVL      XAR4,#||SFRA_GUI_varSetBtnList|| ; [CPU_ARAU] |652| 
         00000004 0000 
    3006 00000005 5603          MOV       ACC,*+XAR5[1] << 1    ; [CPU_ALU] |652| 
         00000006 01CD 
    3007 00000007 5601          ADDL      XAR4,ACC              ; [CPU_ALU] |652| 
         00000008 00A4 
    3008 00000009 8AC4          MOVL      XAR4,*+XAR4[0]        ; [CPU_ALU] |652| 
    3009 0000000a 92D5          MOV       AL,*+XAR5[2]          ; [CPU_ALU] |652| 
    3010 0000000b 761F!         MOVW      DP,#||SFRA_GUI_taskDoneFlag|| ; [CPU_ARAU] 
         0000000c 0000 
    3011 0000000d 96C4          MOV       *+XAR4[0],AL          ; [CPU_ALU] |652| 
    3012                      .dwpsn  file "../sfra_gui_scicomms_driverlib.c",line 657,column 5,is_stmt,isa 0
TMS320C2000 Assembler PC v22.6.1 Tue Jul  2 19:04:17 2024

Copyright (c) 1996-2018 Texas Instruments Incorporated
sfra_gui_scicomms_driverlib.asm                                      PAGE   59

    3013 0000000e 56BF!         MOVB      @||SFRA_GUI_taskDoneFlag||,#1,UNC ; [CPU_ALU] |657| 
         0000000f 0100 
    3014              $C$DW$194       .dwtag  DW_TAG_TI_branch
    3015                      .dwattr $C$DW$194, DW_AT_low_pc(0x00)
    3016                      .dwattr $C$DW$194, DW_AT_TI_return
    3017              
    3018 00000010 0006          LRETR     ; [CPU_ALU] 
    3019                      ; return occurs ; [] 
    3020                      .dwattr $C$DW$193, DW_AT_TI_end_file("../sfra_gui_scicomms_driverlib.c")
    3021                      .dwattr $C$DW$193, DW_AT_TI_end_line(0x292)
    3022                      .dwattr $C$DW$193, DW_AT_TI_end_column(0x01)
    3023                      .dwendentry
    3024                      .dwendtag $C$DW$193
    3025              
    3026 00000000               .sect   ".text:SFRA_GUI_sendData"
    3027                      .clink
    3028                      .global ||SFRA_GUI_sendData||
    3029              
    3030              $C$DW$195       .dwtag  DW_TAG_subprogram
    3031                      .dwattr $C$DW$195, DW_AT_name("SFRA_GUI_sendData")
    3032                      .dwattr $C$DW$195, DW_AT_low_pc(||SFRA_GUI_sendData||)
    3033                      .dwattr $C$DW$195, DW_AT_high_pc(0x00)
    3034                      .dwattr $C$DW$195, DW_AT_linkage_name("SFRA_GUI_sendData")
    3035                      .dwattr $C$DW$195, DW_AT_external
    3036                      .dwattr $C$DW$195, DW_AT_decl_file("../sfra_gui_scicomms_driverlib.c")
    3037                      .dwattr $C$DW$195, DW_AT_decl_line(0x2ff)
    3038                      .dwattr $C$DW$195, DW_AT_decl_column(0x06)
    3039                      .dwattr $C$DW$195, DW_AT_TI_max_frame_size(-2)
    3040                      .dwpsn  file "../sfra_gui_scicomms_driverlib.c",line 768,column 1,is_stmt,address ||SFRA_GUI_sendData
    3041              
    3042                      .dwfde $C$DW$CIE, ||SFRA_GUI_sendData||
    3043              
    3044              ;***************************************************************
    3045              ;* FNAME: SFRA_GUI_sendData             FR SIZE:   0           *
    3046              ;*                                                             *
    3047              ;* FUNCTION ENVIRONMENT                                        *
    3048              ;*                                                             *
    3049              ;* FUNCTION PROPERTIES                                         *
    3050              ;*                            0 Parameter,  0 Auto,  0 SOE     *
    3051              ;***************************************************************
    3052              
    3053              ||SFRA_GUI_sendData||:
    3054              ;* AL    assigned to $O$C19
    3055              ;* AR7   assigned to $O$v2
    3056              ;* AR7   assigned to $O$v2
    3057              ;* AR5   assigned to $O$v1
    3058              ;* AR5   assigned to $O$v1
    3059              ;* AR4   assigned to $O$K1
    3060              ;* AL    assigned to $O$R1
    3061              ;* AL    assigned to $O$R4
    3062              ;* AL    assigned to $O$R7
    3063              ;* AL    assigned to $O$R10
    3064              ;* AL    assigned to $O$R13
    3065              ;* AL    assigned to $O$R16
    3066              ;* AR4   assigned to base
TMS320C2000 Assembler PC v22.6.1 Tue Jul  2 19:04:17 2024

Copyright (c) 1996-2018 Texas Instruments Incorporated
sfra_gui_scicomms_driverlib.asm                                      PAGE   60

    3067              $C$DW$196       .dwtag  DW_TAG_variable
    3068                      .dwattr $C$DW$196, DW_AT_name("base")
    3069                      .dwattr $C$DW$196, DW_AT_type(*$C$DW$T$34)
    3070                      .dwattr $C$DW$196, DW_AT_location[DW_OP_reg12]
    3071              
    3072              ;* AR4   assigned to base
    3073              $C$DW$197       .dwtag  DW_TAG_variable
    3074                      .dwattr $C$DW$197, DW_AT_name("base")
    3075                      .dwattr $C$DW$197, DW_AT_type(*$C$DW$T$34)
    3076                      .dwattr $C$DW$197, DW_AT_location[DW_OP_reg12]
    3077              
    3078              ;* AL    assigned to data
    3079              $C$DW$198       .dwtag  DW_TAG_variable
    3080                      .dwattr $C$DW$198, DW_AT_name("data")
    3081                      .dwattr $C$DW$198, DW_AT_type(*$C$DW$T$42)
    3082                      .dwattr $C$DW$198, DW_AT_location[DW_OP_reg0]
    3083              
    3084              ;* AR4   assigned to base
    3085              $C$DW$199       .dwtag  DW_TAG_variable
    3086                      .dwattr $C$DW$199, DW_AT_name("base")
    3087                      .dwattr $C$DW$199, DW_AT_type(*$C$DW$T$34)
    3088                      .dwattr $C$DW$199, DW_AT_location[DW_OP_reg12]
    3089              
    3090              ;* AR4   assigned to base
    3091              $C$DW$200       .dwtag  DW_TAG_variable
    3092                      .dwattr $C$DW$200, DW_AT_name("base")
    3093                      .dwattr $C$DW$200, DW_AT_type(*$C$DW$T$34)
    3094                      .dwattr $C$DW$200, DW_AT_location[DW_OP_reg12]
    3095              
    3096              ;* AL    assigned to data
    3097              $C$DW$201       .dwtag  DW_TAG_variable
    3098                      .dwattr $C$DW$201, DW_AT_name("data")
    3099                      .dwattr $C$DW$201, DW_AT_type(*$C$DW$T$42)
    3100                      .dwattr $C$DW$201, DW_AT_location[DW_OP_reg0]
    3101              
    3102              ;* AR4   assigned to base
    3103              $C$DW$202       .dwtag  DW_TAG_variable
    3104                      .dwattr $C$DW$202, DW_AT_name("base")
    3105                      .dwattr $C$DW$202, DW_AT_type(*$C$DW$T$34)
    3106                      .dwattr $C$DW$202, DW_AT_location[DW_OP_reg12]
    3107              
    3108              ;* AR4   assigned to base
    3109              $C$DW$203       .dwtag  DW_TAG_variable
    3110                      .dwattr $C$DW$203, DW_AT_name("base")
    3111                      .dwattr $C$DW$203, DW_AT_type(*$C$DW$T$34)
    3112                      .dwattr $C$DW$203, DW_AT_location[DW_OP_reg12]
    3113              
    3114              ;* AL    assigned to data
    3115              $C$DW$204       .dwtag  DW_TAG_variable
    3116                      .dwattr $C$DW$204, DW_AT_name("data")
    3117                      .dwattr $C$DW$204, DW_AT_type(*$C$DW$T$42)
    3118                      .dwattr $C$DW$204, DW_AT_location[DW_OP_reg0]
    3119              
    3120              ;* AR4   assigned to base
    3121              $C$DW$205       .dwtag  DW_TAG_variable
TMS320C2000 Assembler PC v22.6.1 Tue Jul  2 19:04:17 2024

Copyright (c) 1996-2018 Texas Instruments Incorporated
sfra_gui_scicomms_driverlib.asm                                      PAGE   61

    3122                      .dwattr $C$DW$205, DW_AT_name("base")
    3123                      .dwattr $C$DW$205, DW_AT_type(*$C$DW$T$34)
    3124                      .dwattr $C$DW$205, DW_AT_location[DW_OP_reg12]
    3125              
    3126              ;* AR4   assigned to base
    3127              $C$DW$206       .dwtag  DW_TAG_variable
    3128                      .dwattr $C$DW$206, DW_AT_name("base")
    3129                      .dwattr $C$DW$206, DW_AT_type(*$C$DW$T$34)
    3130                      .dwattr $C$DW$206, DW_AT_location[DW_OP_reg12]
    3131              
    3132              ;* AL    assigned to data
    3133              $C$DW$207       .dwtag  DW_TAG_variable
    3134                      .dwattr $C$DW$207, DW_AT_name("data")
    3135                      .dwattr $C$DW$207, DW_AT_type(*$C$DW$T$42)
    3136                      .dwattr $C$DW$207, DW_AT_location[DW_OP_reg0]
    3137              
    3138              ;* AR4   assigned to base
    3139              $C$DW$208       .dwtag  DW_TAG_variable
    3140                      .dwattr $C$DW$208, DW_AT_name("base")
    3141                      .dwattr $C$DW$208, DW_AT_type(*$C$DW$T$34)
    3142                      .dwattr $C$DW$208, DW_AT_location[DW_OP_reg12]
    3143              
    3144              ;* AR4   assigned to base
    3145              $C$DW$209       .dwtag  DW_TAG_variable
    3146                      .dwattr $C$DW$209, DW_AT_name("base")
    3147                      .dwattr $C$DW$209, DW_AT_type(*$C$DW$T$34)
    3148                      .dwattr $C$DW$209, DW_AT_location[DW_OP_reg12]
    3149              
    3150              ;* AL    assigned to data
    3151              $C$DW$210       .dwtag  DW_TAG_variable
    3152                      .dwattr $C$DW$210, DW_AT_name("data")
    3153                      .dwattr $C$DW$210, DW_AT_type(*$C$DW$T$42)
    3154                      .dwattr $C$DW$210, DW_AT_location[DW_OP_reg0]
    3155              
    3156              ;* AR4   assigned to base
    3157              $C$DW$211       .dwtag  DW_TAG_variable
    3158                      .dwattr $C$DW$211, DW_AT_name("base")
    3159                      .dwattr $C$DW$211, DW_AT_type(*$C$DW$T$34)
    3160                      .dwattr $C$DW$211, DW_AT_location[DW_OP_reg12]
    3161              
    3162              ;* AR4   assigned to base
    3163              $C$DW$212       .dwtag  DW_TAG_variable
    3164                      .dwattr $C$DW$212, DW_AT_name("base")
    3165                      .dwattr $C$DW$212, DW_AT_type(*$C$DW$T$34)
    3166                      .dwattr $C$DW$212, DW_AT_location[DW_OP_reg12]
    3167              
    3168              ;* AL    assigned to data
    3169              $C$DW$213       .dwtag  DW_TAG_variable
    3170                      .dwattr $C$DW$213, DW_AT_name("data")
    3171                      .dwattr $C$DW$213, DW_AT_type(*$C$DW$T$42)
    3172                      .dwattr $C$DW$213, DW_AT_location[DW_OP_reg0]
    3173              
    3174                      .dwcfi  cfa_offset, -2
    3175                      .dwcfi  save_reg_to_mem, 26, 0
    3176                      .dwpsn  file "../sfra_gui_scicomms_driverlib.c",line 771,column 9,is_stmt,isa 0
TMS320C2000 Assembler PC v22.6.1 Tue Jul  2 19:04:17 2024

Copyright (c) 1996-2018 Texas Instruments Incorporated
sfra_gui_scicomms_driverlib.asm                                      PAGE   62

    3177 00000000 8F00!         MOVL      XAR4,#||SFRA_GUI_cmdPacket|| ; [CPU_ARAU] |771| 
         00000001 0000 
    3178 00000002 92C4          MOV       AL,*+XAR4[0]          ; [CPU_ALU] |771| 
    3179 00000003 5204          CMPB      AL,#4                 ; [CPU_ALU] |771| 
    3180 00000004 FFE1          B         ||$C$L45||,EQ         ; [CPU_ALU] |771| 
         00000005 00A3 
    3181                      ; branchcc occurs ; [] |771| 
    3182 00000006 5206          CMPB      AL,#6                 ; [CPU_ALU] |771| 
    3183 00000007 FFE1          B         ||$C$L45||,EQ         ; [CPU_ALU] |771| 
         00000008 00A0 
    3184                      ; branchcc occurs ; [] |771| 
    3185 00000009 761F!         MOVW      DP,#||SFRA_GUI_sendTaskPtr|| ; [CPU_ARAU] 
         0000000a 0000 
    3186                      .dwpsn  file "../sfra_gui_scicomms_driverlib.c",line 816,column 9,is_stmt,isa 0
    3187 0000000b 9200!         MOV       AL,@||SFRA_GUI_sendTaskPtr|| ; [CPU_ALU] |816| 
    3188 0000000c 5202          CMPB      AL,#2                 ; [CPU_ALU] |816| 
    3189 0000000d 6208          B         ||$C$L27||,GT         ; [CPU_ALU] |816| 
    3190                      ; branchcc occurs ; [] |816| 
    3191 0000000e 5202          CMPB      AL,#2                 ; [CPU_ALU] |816| 
    3192 0000000f 6138          B         ||$C$L33||,EQ         ; [CPU_ALU] |816| 
    3193                      ; branchcc occurs ; [] |816| 
    3194 00000010 5200          CMPB      AL,#0                 ; [CPU_ALU] |816| 
    3195 00000011 6109          B         ||$C$L28||,EQ         ; [CPU_ALU] |816| 
    3196                      ; branchcc occurs ; [] |816| 
    3197 00000012 5201          CMPB      AL,#1                 ; [CPU_ALU] |816| 
    3198 00000013 6114          B         ||$C$L29||,EQ         ; [CPU_ALU] |816| 
    3199                      ; branchcc occurs ; [] |816| 
    3200                      .dwcfi  remember_state
    3201              $C$DW$214       .dwtag  DW_TAG_TI_branch
    3202                      .dwattr $C$DW$214, DW_AT_low_pc(0x00)
    3203                      .dwattr $C$DW$214, DW_AT_TI_return
    3204              
    3205 00000014 0006          LRETR     ; [CPU_ALU] 
    3206                      ; return occurs ; [] 
    3207                      .dwcfi  restore_state
    3208 00000015       ||$C$L27||:    
    3209 00000015 5203          CMPB      AL,#3                 ; [CPU_ALU] |816| 
    3210 00000016 6150          B         ||$C$L37||,EQ         ; [CPU_ALU] |816| 
    3211                      ; branchcc occurs ; [] |816| 
    3212 00000017 5204          CMPB      AL,#4                 ; [CPU_ALU] |816| 
    3213 00000018 616B          B         ||$C$L41||,EQ         ; [CPU_ALU] |816| 
    3214                      ; branchcc occurs ; [] |816| 
    3215                      .dwcfi  remember_state
    3216              $C$DW$215       .dwtag  DW_TAG_TI_branch
    3217                      .dwattr $C$DW$215, DW_AT_low_pc(0x00)
    3218                      .dwattr $C$DW$215, DW_AT_TI_return
    3219              
    3220 00000019 0006          LRETR     ; [CPU_ALU] 
    3221                      ; return occurs ; [] 
    3222                      .dwcfi  restore_state
    3223 0000001a       ||$C$L28||:    
    3224 0000001a 2901          CLRC      SXM                   ; [CPU_ALU] 
    3225                      .dwpsn  file "../sfra_gui_scicomms_driverlib.c",line 819,column 9,is_stmt,isa 0
    3226 0000001b 8F40!         MOVL      XAR5,#||SFRA_GUI_arrayGetList|| ; [CPU_ARAU] |819| 
         0000001c 0000 
TMS320C2000 Assembler PC v22.6.1 Tue Jul  2 19:04:17 2024

Copyright (c) 1996-2018 Texas Instruments Incorporated
sfra_gui_scicomms_driverlib.asm                                      PAGE   63

    3227 0000001d 5603          MOV       ACC,*+XAR4[1] << 1    ; [CPU_ALU] |819| 
         0000001e 01CC 
    3228 0000001f 5601          ADDL      XAR5,ACC              ; [CPU_ALU] |819| 
         00000020 00A5 
    3229 00000021 83C5          MOVL      XAR5,*+XAR5[0]        ; [CPU_ALU] |819| 
    3230                      .dwpsn  file "../sfra_gui_scicomms_driverlib.c",line 821,column 9,is_stmt,isa 0
    3231 00000022 C4C5          MOVL      XAR6,*+XAR5[0]        ; [CPU_ALU] |821| 
    3232                      .dwpsn  file "../sfra_gui_scicomms_driverlib.c",line 822,column 9,is_stmt,isa 0
    3233 00000023 92D4          MOV       AL,*+XAR4[2]          ; [CPU_ALU] |822| 
    3234 00000024 9600!         MOV       @||SFRA_GUI_wordsLeftToGet||,AL ; [CPU_ALU] |822| 
    3235                      .dwpsn  file "../sfra_gui_scicomms_driverlib.c",line 819,column 9,is_stmt,isa 0
    3236 00000025 A000!         MOVL      @||SFRA_GUI_memDataPtr32||,XAR5 ; [CPU_ALU] |819| 
    3237                      .dwpsn  file "../sfra_gui_scicomms_driverlib.c",line 821,column 9,is_stmt,isa 0
    3238 00000026 C200!         MOVL      @||SFRA_GUI_dataOut32||,XAR6 ; [CPU_ALU] |821| 
    3239 00000027       ||$C$L29||:    
    3240                      .dwpsn  file "../sfra_gui_scicomms_driverlib.c",line 827,column 13,is_stmt,isa 0
    3241 00000027 9200!         MOV       AL,@||SFRA_GUI_wordsLeftToGet|| ; [CPU_ALU] |827| 
    3242 00000028 FFE1          B         ||$C$L56||,EQ         ; [CPU_ALU] |827| 
         00000029 00DC 
    3243                      ; branchcc occurs ; [] |827| 
    3244                      .dwpsn  file "C:/ti/C2000Ware_DigitalPower_SDK_5_02_01_00/c2000ware/driverlib/f28004x/driverlib/sci.h
    3245 0000002a 8A00!         MOVL      XAR4,@||SFRA_GUI_sci_base_addr|| ; [CPU_ALU] |1010| 
    3246                      .dwpsn  file "C:/ti/C2000Ware_DigitalPower_SDK_5_02_01_00/c2000ware/driverlib/f28004x/driverlib/sci.h
    3247 0000002b D00A          MOVB      XAR0,#10              ; [CPU_ALU] |788| 
    3248 0000002c 4E94          TBIT      *+XAR4[AR0],#14       ; [CPU_ALU] |788| 
    3249 0000002d 6D06          B         ||$C$L30||,TC         ; [CPU_ALU] |788| 
    3250                      ; branchcc occurs ; [] |788| 
    3251                      .dwpsn  file "C:/ti/C2000Ware_DigitalPower_SDK_5_02_01_00/c2000ware/driverlib/f28004x/driverlib/sci.h
    3252 0000002e 92E4          MOV       AL,*+XAR4[4]          ; [CPU_ALU] |1033| 
    3253 0000002f FFC5          LSR       AL,6                  ; [CPU_ALU] |1033| 
    3254 00000030 F001          XORB      AL,#0x01              ; [CPU_ALU] |1033| 
    3255 00000031 9001          ANDB      AL,#0x01              ; [CPU_ALU] |1033| 
    3256 00000032 6F08          B         ||$C$L31||,UNC        ; [CPU_ALU] |1033| 
    3257                      ; branch occurs ; [] |1033| 
    3258 00000033       ||$C$L30||:    
    3259                      .dwpsn  file "C:/ti/C2000Ware_DigitalPower_SDK_5_02_01_00/c2000ware/driverlib/f28004x/driverlib/sci.h
    3260 00000033 D00A          MOVB      XAR0,#10              ; [CPU_ALU] |1024| 
    3261 00000034 9A00          MOVB      AL,#0                 ; [CPU_ALU] |1024| 
    3262 00000035 CD94          AND       AH,*+XAR4[AR0],#0x1f00 ; [CPU_ALU] |1024| 
         00000036 1F00 
    3263 00000037 5300          CMPB      AH,#0                 ; [CPU_ALU] |1024| 
    3264 00000038 56B0          MOVB      AL,#1,NEQ             ; [CPU_ALU] |1024| 
         00000039 01A9 
    3265 0000003a       ||$C$L31||:    
    3266                      .dwpsn  file "../sfra_gui_scicomms_driverlib.c",line 829,column 17,is_stmt,isa 0
    3267 0000003a 5200          CMPB      AL,#0                 ; [CPU_ALU] |829| 
    3268 0000003b 600C          B         ||$C$L33||,NEQ        ; [CPU_ALU] |829| 
    3269                      ; branchcc occurs ; [] |829| 
    3270                      .dwpsn  file "C:/ti/C2000Ware_DigitalPower_SDK_5_02_01_00/c2000ware/driverlib/f28004x/driverlib/sci.h
    3271 0000003c 8A00!         MOVL      XAR4,@||SFRA_GUI_sci_base_addr|| ; [CPU_ALU] |1094| 
    3272 0000003d CC00!         AND       AL,@||SFRA_GUI_dataOut32||,#0x00ff ; [CPU_ALU] |1094| 
         0000003e 00FF 
    3273 0000003f       ||$C$L32||:    
    3274                      .dwpsn  file "C:/ti/C2000Ware_DigitalPower_SDK_5_02_01_00/c2000ware/driverlib/f28004x/driverlib/sci.h
    3275 0000003f 47E4          TBIT      *+XAR4[4],#7          ; [CPU_ALU] |915| 
TMS320C2000 Assembler PC v22.6.1 Tue Jul  2 19:04:17 2024

Copyright (c) 1996-2018 Texas Instruments Incorporated
sfra_gui_scicomms_driverlib.asm                                      PAGE   64

    3276 00000040 6CFF          B         ||$C$L32||,NTC        ; [CPU_ALU] |915| 
    3277                      ; branchcc occurs ; [] |915| 
    3278                      .dwpsn  file "C:/ti/C2000Ware_DigitalPower_SDK_5_02_01_00/c2000ware/driverlib/f28004x/driverlib/sci.h
    3279 00000041 D009          MOVB      XAR0,#9               ; [CPU_ALU] |1110| 
    3280 00000042 761F!         MOVW      DP,#||SFRA_GUI_sendTaskPtr|| ; [CPU_ARAU] 
         00000043 0000 
    3281 00000044 9694          MOV       *+XAR4[AR0],AL        ; [CPU_ALU] |1110| 
    3282                      .dwpsn  file "../sfra_gui_scicomms_driverlib.c",line 833,column 21,is_stmt,isa 0
    3283 00000045 56BF!         MOVB      @||SFRA_GUI_sendTaskPtr||,#2,UNC ; [CPU_ALU] |833| 
         00000046 0200 
    3284 00000047       ||$C$L33||:    
    3285                      .dwpsn  file "C:/ti/C2000Ware_DigitalPower_SDK_5_02_01_00/c2000ware/driverlib/f28004x/driverlib/sci.h
    3286 00000047 8A00!         MOVL      XAR4,@||SFRA_GUI_sci_base_addr|| ; [CPU_ALU] |1010| 
    3287                      .dwpsn  file "C:/ti/C2000Ware_DigitalPower_SDK_5_02_01_00/c2000ware/driverlib/f28004x/driverlib/sci.h
    3288 00000048 D00A          MOVB      XAR0,#10              ; [CPU_ALU] |788| 
    3289 00000049 4E94          TBIT      *+XAR4[AR0],#14       ; [CPU_ALU] |788| 
    3290 0000004a 6D06          B         ||$C$L34||,TC         ; [CPU_ALU] |788| 
    3291                      ; branchcc occurs ; [] |788| 
    3292                      .dwpsn  file "C:/ti/C2000Ware_DigitalPower_SDK_5_02_01_00/c2000ware/driverlib/f28004x/driverlib/sci.h
    3293 0000004b 92E4          MOV       AL,*+XAR4[4]          ; [CPU_ALU] |1033| 
    3294 0000004c FFC5          LSR       AL,6                  ; [CPU_ALU] |1033| 
    3295 0000004d F001          XORB      AL,#0x01              ; [CPU_ALU] |1033| 
    3296 0000004e 9001          ANDB      AL,#0x01              ; [CPU_ALU] |1033| 
    3297 0000004f 6F08          B         ||$C$L35||,UNC        ; [CPU_ALU] |1033| 
    3298                      ; branch occurs ; [] |1033| 
    3299 00000050       ||$C$L34||:    
    3300                      .dwpsn  file "C:/ti/C2000Ware_DigitalPower_SDK_5_02_01_00/c2000ware/driverlib/f28004x/driverlib/sci.h
    3301 00000050 D00A          MOVB      XAR0,#10              ; [CPU_ALU] |1024| 
    3302 00000051 9A00          MOVB      AL,#0                 ; [CPU_ALU] |1024| 
    3303 00000052 CD94          AND       AH,*+XAR4[AR0],#0x1f00 ; [CPU_ALU] |1024| 
         00000053 1F00 
    3304 00000054 5300          CMPB      AH,#0                 ; [CPU_ALU] |1024| 
    3305 00000055 56B0          MOVB      AL,#1,NEQ             ; [CPU_ALU] |1024| 
         00000056 01A9 
    3306 00000057       ||$C$L35||:    
    3307                      .dwpsn  file "../sfra_gui_scicomms_driverlib.c",line 844,column 13,is_stmt,isa 0
    3308 00000057 5200          CMPB      AL,#0                 ; [CPU_ALU] |844| 
    3309 00000058 600E          B         ||$C$L37||,NEQ        ; [CPU_ALU] |844| 
    3310                      ; branchcc occurs ; [] |844| 
    3311                      .dwpsn  file "C:/ti/C2000Ware_DigitalPower_SDK_5_02_01_00/c2000ware/driverlib/f28004x/driverlib/sci.h
    3312 00000059 0600!         MOVL      ACC,@||SFRA_GUI_dataOut32|| ; [CPU_ALU] |1094| 
    3313 0000005a 8A00!         MOVL      XAR4,@||SFRA_GUI_sci_base_addr|| ; [CPU_ALU] |1094| 
    3314 0000005b 3B01          SETC      SXM                   ; [CPU_ALU] 
    3315 0000005c FF47          SFR       ACC,8                 ; [CPU_ALU] |1094| 
    3316 0000005d 90FF          ANDB      AL,#0xff              ; [CPU_ALU] |1094| 
    3317 0000005e       ||$C$L36||:    
    3318                      .dwpsn  file "C:/ti/C2000Ware_DigitalPower_SDK_5_02_01_00/c2000ware/driverlib/f28004x/driverlib/sci.h
    3319 0000005e 47E4          TBIT      *+XAR4[4],#7          ; [CPU_ALU] |915| 
    3320 0000005f 6CFF          B         ||$C$L36||,NTC        ; [CPU_ALU] |915| 
    3321                      ; branchcc occurs ; [] |915| 
    3322                      .dwpsn  file "C:/ti/C2000Ware_DigitalPower_SDK_5_02_01_00/c2000ware/driverlib/f28004x/driverlib/sci.h
    3323 00000060 D009          MOVB      XAR0,#9               ; [CPU_ALU] |1110| 
    3324 00000061 761F!         MOVW      DP,#||SFRA_GUI_sendTaskPtr|| ; [CPU_ARAU] 
         00000062 0000 
    3325 00000063 9694          MOV       *+XAR4[AR0],AL        ; [CPU_ALU] |1110| 
TMS320C2000 Assembler PC v22.6.1 Tue Jul  2 19:04:17 2024

Copyright (c) 1996-2018 Texas Instruments Incorporated
sfra_gui_scicomms_driverlib.asm                                      PAGE   65

    3326                      .dwpsn  file "../sfra_gui_scicomms_driverlib.c",line 848,column 17,is_stmt,isa 0
    3327 00000064 56BF!         MOVB      @||SFRA_GUI_sendTaskPtr||,#3,UNC ; [CPU_ALU] |848| 
         00000065 0300 
    3328 00000066       ||$C$L37||:    
    3329                      .dwpsn  file "C:/ti/C2000Ware_DigitalPower_SDK_5_02_01_00/c2000ware/driverlib/f28004x/driverlib/sci.h
    3330 00000066 8A00!         MOVL      XAR4,@||SFRA_GUI_sci_base_addr|| ; [CPU_ALU] |1010| 
    3331                      .dwpsn  file "C:/ti/C2000Ware_DigitalPower_SDK_5_02_01_00/c2000ware/driverlib/f28004x/driverlib/sci.h
    3332 00000067 D00A          MOVB      XAR0,#10              ; [CPU_ALU] |788| 
    3333 00000068 4E94          TBIT      *+XAR4[AR0],#14       ; [CPU_ALU] |788| 
    3334 00000069 6D06          B         ||$C$L38||,TC         ; [CPU_ALU] |788| 
    3335                      ; branchcc occurs ; [] |788| 
