TMS320C2000 Assembler PC v22.6.1 Tue Jul  2 19:04:16 2024

Copyright (c) 1996-2018 Texas Instruments Incorporated
device.asm                                                           PAGE    1

       1              ;***************************************************************
       2              ;* TMS320C2000 G3 C/C++ Codegen                               PC v22.6.1.LTS *
       3              ;* Date/Time created: Tue Jul  2 19:04:16 2024                 *
       4              ;***************************************************************
       5                      .compiler_opts --abi=eabi --cla_support=cla2 --diag_wrap=off --float_support=fpu32 --hll_source=on --
       6                      .asg    XAR2, FP
       7              
       8              $C$DW$CU        .dwtag  DW_TAG_compile_unit
       9                      .dwattr $C$DW$CU, DW_AT_name("../device/device.c")
      10                      .dwattr $C$DW$CU, DW_AT_producer("TI TMS320C2000 G3 C/C++ Codegen PC v22.6.1.LTS Copyright (c) 1996-2
      11                      .dwattr $C$DW$CU, DW_AT_TI_version(0x01)
      12                      .dwattr $C$DW$CU, DW_AT_comp_dir("C:\Users\Lenovo\workspace_v13\PCMC_PSFB_F28004x\RELEASE")
      13              
      14              $C$DW$1 .dwtag  DW_TAG_subprogram
      15                      .dwattr $C$DW$1, DW_AT_name("Flash_initModule")
      16                      .dwattr $C$DW$1, DW_AT_linkage_name("Flash_initModule")
      17                      .dwattr $C$DW$1, DW_AT_declaration
      18                      .dwattr $C$DW$1, DW_AT_external
      19                      .dwattr $C$DW$1, DW_AT_decl_file("C:/ti/C2000Ware_DigitalPower_SDK_5_02_01_00/c2000ware/driverlib/f28
      20                      .dwattr $C$DW$1, DW_AT_decl_line(0x640)
      21                      .dwattr $C$DW$1, DW_AT_decl_column(0x01)
      22              $C$DW$2 .dwtag  DW_TAG_formal_parameter
      23                      .dwattr $C$DW$2, DW_AT_type(*$C$DW$T$32)
      24              
      25              $C$DW$3 .dwtag  DW_TAG_formal_parameter
      26                      .dwattr $C$DW$3, DW_AT_type(*$C$DW$T$32)
      27              
      28              $C$DW$4 .dwtag  DW_TAG_formal_parameter
      29                      .dwattr $C$DW$4, DW_AT_type(*$C$DW$T$34)
      30              
      31                      .dwendtag $C$DW$1
      32              
      33              $C$DW$5 .dwtag  DW_TAG_variable
      34                      .dwattr $C$DW$5, DW_AT_name("RamfuncsLoadStart")
      35                      .dwattr $C$DW$5, DW_AT_linkage_name("RamfuncsLoadStart")
      36                      .dwattr $C$DW$5, DW_AT_type(*$C$DW$T$34)
      37                      .dwattr $C$DW$5, DW_AT_declaration
      38                      .dwattr $C$DW$5, DW_AT_external
      39                      .dwattr $C$DW$5, DW_AT_decl_file("..\device\device.h")
      40                      .dwattr $C$DW$5, DW_AT_decl_line(0x8b)
      41                      .dwattr $C$DW$5, DW_AT_decl_column(0x11)
      42              
      43              $C$DW$6 .dwtag  DW_TAG_variable
      44                      .dwattr $C$DW$6, DW_AT_name("RamfuncsLoadSize")
      45                      .dwattr $C$DW$6, DW_AT_linkage_name("RamfuncsLoadSize")
      46                      .dwattr $C$DW$6, DW_AT_type(*$C$DW$T$34)
      47                      .dwattr $C$DW$6, DW_AT_declaration
      48                      .dwattr $C$DW$6, DW_AT_external
      49                      .dwattr $C$DW$6, DW_AT_decl_file("..\device\device.h")
      50                      .dwattr $C$DW$6, DW_AT_decl_line(0x8d)
      51                      .dwattr $C$DW$6, DW_AT_decl_column(0x11)
      52              
      53              $C$DW$7 .dwtag  DW_TAG_variable
      54                      .dwattr $C$DW$7, DW_AT_name("RamfuncsRunStart")
      55                      .dwattr $C$DW$7, DW_AT_linkage_name("RamfuncsRunStart")
TMS320C2000 Assembler PC v22.6.1 Tue Jul  2 19:04:16 2024

Copyright (c) 1996-2018 Texas Instruments Incorporated
device.asm                                                           PAGE    2

      56                      .dwattr $C$DW$7, DW_AT_type(*$C$DW$T$34)
      57                      .dwattr $C$DW$7, DW_AT_declaration
      58                      .dwattr $C$DW$7, DW_AT_external
      59                      .dwattr $C$DW$7, DW_AT_decl_file("..\device\device.h")
      60                      .dwattr $C$DW$7, DW_AT_decl_line(0x8e)
      61                      .dwattr $C$DW$7, DW_AT_decl_column(0x11)
      62              
      63              $C$DW$8 .dwtag  DW_TAG_variable
      64                      .dwattr $C$DW$8, DW_AT_name("isrcodefuncsLoadStart")
      65                      .dwattr $C$DW$8, DW_AT_linkage_name("isrcodefuncsLoadStart")
      66                      .dwattr $C$DW$8, DW_AT_type(*$C$DW$T$34)
      67                      .dwattr $C$DW$8, DW_AT_declaration
      68                      .dwattr $C$DW$8, DW_AT_external
      69                      .dwattr $C$DW$8, DW_AT_decl_file("..\device\device.h")
      70                      .dwattr $C$DW$8, DW_AT_decl_line(0x92)
      71                      .dwattr $C$DW$8, DW_AT_decl_column(0x11)
      72              
      73              $C$DW$9 .dwtag  DW_TAG_variable
      74                      .dwattr $C$DW$9, DW_AT_name("isrcodefuncsLoadSize")
      75                      .dwattr $C$DW$9, DW_AT_linkage_name("isrcodefuncsLoadSize")
      76                      .dwattr $C$DW$9, DW_AT_type(*$C$DW$T$34)
      77                      .dwattr $C$DW$9, DW_AT_declaration
      78                      .dwattr $C$DW$9, DW_AT_external
      79                      .dwattr $C$DW$9, DW_AT_decl_file("..\device\device.h")
      80                      .dwattr $C$DW$9, DW_AT_decl_line(0x94)
      81                      .dwattr $C$DW$9, DW_AT_decl_column(0x11)
      82              
      83              $C$DW$10        .dwtag  DW_TAG_variable
      84                      .dwattr $C$DW$10, DW_AT_name("isrcodefuncsRunStart")
      85                      .dwattr $C$DW$10, DW_AT_linkage_name("isrcodefuncsRunStart")
      86                      .dwattr $C$DW$10, DW_AT_type(*$C$DW$T$34)
      87                      .dwattr $C$DW$10, DW_AT_declaration
      88                      .dwattr $C$DW$10, DW_AT_external
      89                      .dwattr $C$DW$10, DW_AT_decl_file("..\device\device.h")
      90                      .dwattr $C$DW$10, DW_AT_decl_line(0x95)
      91                      .dwattr $C$DW$10, DW_AT_decl_column(0x11)
      92              
      93              
      94              $C$DW$11        .dwtag  DW_TAG_subprogram
      95                      .dwattr $C$DW$11, DW_AT_name("SysCtl_setClock")
      96                      .dwattr $C$DW$11, DW_AT_linkage_name("SysCtl_setClock")
      97                      .dwattr $C$DW$11, DW_AT_type(*$C$DW$T$52)
      98                      .dwattr $C$DW$11, DW_AT_declaration
      99                      .dwattr $C$DW$11, DW_AT_external
     100                      .dwattr $C$DW$11, DW_AT_decl_file("C:\ti\C2000Ware_DigitalPower_SDK_5_02_01_00\c2000ware\driverlib\f2
     101                      .dwattr $C$DW$11, DW_AT_decl_line(0xb6b)
     102                      .dwattr $C$DW$11, DW_AT_decl_column(0x01)
     103              $C$DW$12        .dwtag  DW_TAG_formal_parameter
     104                      .dwattr $C$DW$12, DW_AT_type(*$C$DW$T$32)
     105              
     106                      .dwendtag $C$DW$11
     107              
     108                      .global ||dieid||
     109 00000000               .bss    ||dieid||,2,1,1
     110              $C$DW$13        .dwtag  DW_TAG_variable
TMS320C2000 Assembler PC v22.6.1 Tue Jul  2 19:04:16 2024

Copyright (c) 1996-2018 Texas Instruments Incorporated
device.asm                                                           PAGE    3

     111                      .dwattr $C$DW$13, DW_AT_name("dieid")
     112                      .dwattr $C$DW$13, DW_AT_linkage_name("dieid")
     113                      .dwattr $C$DW$13, DW_AT_location[DW_OP_addr ||dieid||]
     114                      .dwattr $C$DW$13, DW_AT_type(*$C$DW$T$51)
     115                      .dwattr $C$DW$13, DW_AT_external
     116                      .dwattr $C$DW$13, DW_AT_decl_file("../device/device.c")
     117                      .dwattr $C$DW$13, DW_AT_decl_line(0x36)
     118                      .dwattr $C$DW$13, DW_AT_decl_column(0x0b)
     119              
     120                      .global ||Scribe||
     121 00000002               .bss    ||Scribe||,2,1,1
     122              $C$DW$14        .dwtag  DW_TAG_variable
     123                      .dwattr $C$DW$14, DW_AT_name("Scribe")
     124                      .dwattr $C$DW$14, DW_AT_linkage_name("Scribe")
     125                      .dwattr $C$DW$14, DW_AT_location[DW_OP_addr ||Scribe||]
     126                      .dwattr $C$DW$14, DW_AT_type(*$C$DW$T$32)
     127                      .dwattr $C$DW$14, DW_AT_external
     128                      .dwattr $C$DW$14, DW_AT_decl_file("../device/device.c")
     129                      .dwattr $C$DW$14, DW_AT_decl_line(0x36)
     130                      .dwattr $C$DW$14, DW_AT_decl_column(0x12)
     131              
     132                      .global ||xCoord||
     133 00000004               .bss    ||xCoord||,2,1,1
     134              $C$DW$15        .dwtag  DW_TAG_variable
     135                      .dwattr $C$DW$15, DW_AT_name("xCoord")
     136                      .dwattr $C$DW$15, DW_AT_linkage_name("xCoord")
     137                      .dwattr $C$DW$15, DW_AT_location[DW_OP_addr ||xCoord||]
     138                      .dwattr $C$DW$15, DW_AT_type(*$C$DW$T$32)
     139                      .dwattr $C$DW$15, DW_AT_external
     140                      .dwattr $C$DW$15, DW_AT_decl_file("../device/device.c")
     141                      .dwattr $C$DW$15, DW_AT_decl_line(0x36)
     142                      .dwattr $C$DW$15, DW_AT_decl_column(0x1a)
     143              
     144                      .global ||yCoord||
     145 00000006               .bss    ||yCoord||,2,1,1
     146              $C$DW$16        .dwtag  DW_TAG_variable
     147                      .dwattr $C$DW$16, DW_AT_name("yCoord")
     148                      .dwattr $C$DW$16, DW_AT_linkage_name("yCoord")
     149                      .dwattr $C$DW$16, DW_AT_location[DW_OP_addr ||yCoord||]
     150                      .dwattr $C$DW$16, DW_AT_type(*$C$DW$T$32)
     151                      .dwattr $C$DW$16, DW_AT_external
     152                      .dwattr $C$DW$16, DW_AT_decl_file("../device/device.c")
     153                      .dwattr $C$DW$16, DW_AT_decl_line(0x36)
     154                      .dwattr $C$DW$16, DW_AT_decl_column(0x22)
     155              
     156                      .global ||WfrNum||
     157 00000008               .bss    ||WfrNum||,2,1,1
     158              $C$DW$17        .dwtag  DW_TAG_variable
     159                      .dwattr $C$DW$17, DW_AT_name("WfrNum")
     160                      .dwattr $C$DW$17, DW_AT_linkage_name("WfrNum")
     161                      .dwattr $C$DW$17, DW_AT_location[DW_OP_addr ||WfrNum||]
     162                      .dwattr $C$DW$17, DW_AT_type(*$C$DW$T$32)
     163                      .dwattr $C$DW$17, DW_AT_external
     164                      .dwattr $C$DW$17, DW_AT_decl_file("../device/device.c")
     165                      .dwattr $C$DW$17, DW_AT_decl_line(0x36)
TMS320C2000 Assembler PC v22.6.1 Tue Jul  2 19:04:16 2024

Copyright (c) 1996-2018 Texas Instruments Incorporated
device.asm                                                           PAGE    4

     166                      .dwattr $C$DW$17, DW_AT_decl_column(0x2a)
     167              
     168              
     169              $C$DW$18        .dwtag  DW_TAG_subprogram
     170                      .dwattr $C$DW$18, DW_AT_name("__eallow")
     171                      .dwattr $C$DW$18, DW_AT_linkage_name("__eallow")
     172                      .dwattr $C$DW$18, DW_AT_declaration
     173                      .dwattr $C$DW$18, DW_AT_external
     174                      .dwendtag $C$DW$18
     175              
     176              
     177              $C$DW$19        .dwtag  DW_TAG_subprogram
     178                      .dwattr $C$DW$19, DW_AT_name("__edis")
     179                      .dwattr $C$DW$19, DW_AT_linkage_name("__edis")
     180                      .dwattr $C$DW$19, DW_AT_declaration
     181                      .dwattr $C$DW$19, DW_AT_external
     182                      .dwendtag $C$DW$19
     183              
     184                      .sblock ".bss"
     185              ;       C:\ti\ccs1260\ccs\tools\compiler\ti-cgt-c2000_22.6.1.LTS\bin\opt2000.exe C:\\Users\\Lenovo\\AppData\\
     186              ;       C:\ti\ccs1260\ccs\tools\compiler\ti-cgt-c2000_22.6.1.LTS\bin\acia2000.exe -@C:\\Users\\Lenovo\\AppDat
     187 00000000               .sect   ".text:__error__"
     188                      .clink
     189                      .global ||__error__||
     190              
     191              $C$DW$20        .dwtag  DW_TAG_subprogram
     192                      .dwattr $C$DW$20, DW_AT_name("__error__")
     193                      .dwattr $C$DW$20, DW_AT_low_pc(||__error__||)
     194                      .dwattr $C$DW$20, DW_AT_high_pc(0x00)
     195                      .dwattr $C$DW$20, DW_AT_linkage_name("__error__")
     196                      .dwattr $C$DW$20, DW_AT_external
     197                      .dwattr $C$DW$20, DW_AT_decl_file("../device/device.c")
     198                      .dwattr $C$DW$20, DW_AT_decl_line(0xf8)
     199                      .dwattr $C$DW$20, DW_AT_decl_column(0x06)
     200                      .dwattr $C$DW$20, DW_AT_TI_max_frame_size(-2)
     201                      .dwpsn  file "../device/device.c",line 249,column 1,is_stmt,address ||__error__||,isa 0
     202              
     203                      .dwfde $C$DW$CIE, ||__error__||
     204              $C$DW$21        .dwtag  DW_TAG_formal_parameter
     205                      .dwattr $C$DW$21, DW_AT_name("filename")
     206                      .dwattr $C$DW$21, DW_AT_type(*$C$DW$T$40)
     207                      .dwattr $C$DW$21, DW_AT_location[DW_OP_reg12]
     208              
     209              $C$DW$22        .dwtag  DW_TAG_formal_parameter
     210                      .dwattr $C$DW$22, DW_AT_name("line")
     211                      .dwattr $C$DW$22, DW_AT_type(*$C$DW$T$32)
     212                      .dwattr $C$DW$22, DW_AT_location[DW_OP_reg0]
     213              
     214              
     215              ;***************************************************************
     216              ;* FNAME: __error__                     FR SIZE:   0           *
     217              ;*                                                             *
     218              ;* FUNCTION ENVIRONMENT                                        *
     219              ;*                                                             *
     220              ;* FUNCTION PROPERTIES                                         *
TMS320C2000 Assembler PC v22.6.1 Tue Jul  2 19:04:16 2024

Copyright (c) 1996-2018 Texas Instruments Incorporated
device.asm                                                           PAGE    5

     221              ;*                            0 Parameter,  0 Auto,  0 SOE     *
     222              ;***************************************************************
     223              
     224 00000000       ||__error__||:
     225                      .dwcfi  cfa_offset, -2
     226                      .dwcfi  save_reg_to_mem, 26, 0
     227 00000000 7625   ESTOP0
     228 00000001 FF69          SPM       #0                    ; [CPU_ALU] 
     229              $C$DW$23        .dwtag  DW_TAG_TI_branch
     230                      .dwattr $C$DW$23, DW_AT_low_pc(0x00)
     231                      .dwattr $C$DW$23, DW_AT_TI_return
     232              
     233 00000002 0006          LRETR     ; [CPU_ALU] 
     234                      ; return occurs ; [] 
     235                      .dwattr $C$DW$20, DW_AT_TI_end_file("../device/device.c")
     236                      .dwattr $C$DW$20, DW_AT_TI_end_line(0xff)
     237                      .dwattr $C$DW$20, DW_AT_TI_end_column(0x01)
     238                      .dwendentry
     239                      .dwendtag $C$DW$20
     240              
     241 00000000               .sect   ".text:Device_initGPIO"
     242                      .clink
     243                      .global ||Device_initGPIO||
     244              
     245              $C$DW$24        .dwtag  DW_TAG_subprogram
     246                      .dwattr $C$DW$24, DW_AT_name("Device_initGPIO")
     247                      .dwattr $C$DW$24, DW_AT_low_pc(||Device_initGPIO||)
     248                      .dwattr $C$DW$24, DW_AT_high_pc(0x00)
     249                      .dwattr $C$DW$24, DW_AT_linkage_name("Device_initGPIO")
     250                      .dwattr $C$DW$24, DW_AT_external
     251                      .dwattr $C$DW$24, DW_AT_decl_file("../device/device.c")
     252                      .dwattr $C$DW$24, DW_AT_decl_line(0xe9)
     253                      .dwattr $C$DW$24, DW_AT_decl_column(0x06)
     254                      .dwattr $C$DW$24, DW_AT_TI_max_frame_size(-2)
     255                      .dwpsn  file "../device/device.c",line 234,column 1,is_stmt,address ||Device_initGPIO||,isa 0
     256              
     257                      .dwfde $C$DW$CIE, ||Device_initGPIO||
     258              
     259              ;***************************************************************
     260              ;* FNAME: Device_initGPIO               FR SIZE:   0           *
     261              ;*                                                             *
     262              ;* FUNCTION ENVIRONMENT                                        *
     263              ;*                                                             *
     264              ;* FUNCTION PROPERTIES                                         *
     265              ;*                            0 Parameter,  0 Auto,  0 SOE     *
     266              ;***************************************************************
     267              
     268 00000000       ||Device_initGPIO||:
     269                      .dwcfi  cfa_offset, -2
     270                      .dwcfi  save_reg_to_mem, 26, 0
     271                      .dwpsn  file "C:/ti/C2000Ware_DigitalPower_SDK_5_02_01_00/c2000ware/driverlib/f28004x/driverlib/gpio.
     272 00000000 7622          EALLOW    ; [CPU_ALU] |729| 
     273                      .dwpsn  file "C:/ti/C2000Ware_DigitalPower_SDK_5_02_01_00/c2000ware/driverlib/f28004x/driverlib/gpio.
     274 00000001 BFA9          MOV32     ACC,*(0:0x7c3c)       ; [CPU_FPU] |730| 
         00000002 7C3C 
TMS320C2000 Assembler PC v22.6.1 Tue Jul  2 19:04:16 2024

Copyright (c) 1996-2018 Texas Instruments Incorporated
device.asm                                                           PAGE    6

     275 00000003 0200          MOVB      ACC,#0                ; [CPU_ALU] |730| 
     276 00000004 BDA9          MOV32     *(0:0x7c3c),ACC       ; [CPU_FPU] |730| 
         00000005 7C3C 
     277 00000006 BFA6          MOV32     XAR6,*(0:0x7c7c)      ; [CPU_FPU] |730| 
         00000007 7C7C 
     278 00000008 BDA9          MOV32     *(0:0x7c7c),ACC       ; [CPU_FPU] |730| 
         00000009 7C7C 
     279 0000000a BFA6          MOV32     XAR6,*(0:0x7dfc)      ; [CPU_FPU] |730| 
         0000000b 7DFC 
     280 0000000c BDA9          MOV32     *(0:0x7dfc),ACC       ; [CPU_FPU] |730| 
         0000000d 7DFC 
     281                      .dwpsn  file "C:/ti/C2000Ware_DigitalPower_SDK_5_02_01_00/c2000ware/driverlib/f28004x/driverlib/gpio.
     282 0000000e 761A          EDIS      ; [CPU_ALU] |731| 
     283              $C$DW$25        .dwtag  DW_TAG_TI_branch
     284                      .dwattr $C$DW$25, DW_AT_low_pc(0x00)
     285                      .dwattr $C$DW$25, DW_AT_TI_return
     286              
     287 0000000f 0006          LRETR     ; [CPU_ALU] 
     288                      ; return occurs ; [] 
     289                      .dwattr $C$DW$24, DW_AT_TI_end_file("../device/device.c")
     290                      .dwattr $C$DW$24, DW_AT_TI_end_line(0xf1)
     291                      .dwattr $C$DW$24, DW_AT_TI_end_column(0x01)
     292                      .dwendentry
     293                      .dwendtag $C$DW$24
     294              
     295 00000000               .sect   ".text:Device_enableAllPeripherals"
     296                      .clink
     297                      .global ||Device_enableAllPeripherals||
     298              
     299              $C$DW$26        .dwtag  DW_TAG_subprogram
     300                      .dwattr $C$DW$26, DW_AT_name("Device_enableAllPeripherals")
     301                      .dwattr $C$DW$26, DW_AT_low_pc(||Device_enableAllPeripherals||)
     302                      .dwattr $C$DW$26, DW_AT_high_pc(0x00)
     303                      .dwattr $C$DW$26, DW_AT_linkage_name("Device_enableAllPeripherals")
     304                      .dwattr $C$DW$26, DW_AT_external
     305                      .dwattr $C$DW$26, DW_AT_decl_file("../device/device.c")
     306                      .dwattr $C$DW$26, DW_AT_decl_line(0x9b)
     307                      .dwattr $C$DW$26, DW_AT_decl_column(0x06)
     308                      .dwattr $C$DW$26, DW_AT_TI_max_frame_size(-2)
     309                      .dwpsn  file "../device/device.c",line 156,column 1,is_stmt,address ||Device_enableAllPeripherals||,i
     310              
     311                      .dwfde $C$DW$CIE, ||Device_enableAllPeripherals||
     312              
     313              ;***************************************************************
     314              ;* FNAME: Device_enableAllPeripherals   FR SIZE:   0           *
     315              ;*                                                             *
     316              ;* FUNCTION ENVIRONMENT                                        *
     317              ;*                                                             *
     318              ;* FUNCTION PROPERTIES                                         *
     319              ;*                            0 Parameter,  0 Auto,  0 SOE     *
     320              ;***************************************************************
     321              
     322 00000000       ||Device_enableAllPeripherals||:
     323                      .dwcfi  cfa_offset, -2
     324                      .dwcfi  save_reg_to_mem, 26, 0
TMS320C2000 Assembler PC v22.6.1 Tue Jul  2 19:04:16 2024

Copyright (c) 1996-2018 Texas Instruments Incorporated
device.asm                                                           PAGE    7

     325                      .dwpsn  file "C:\ti\C2000Ware_DigitalPower_SDK_5_02_01_00\c2000ware\driverlib\f28004x\driverlib\sysct
     326 00000000 7622          EALLOW    ; [CPU_ALU] |870| 
     327                      .dwpsn  file "C:\ti\C2000Ware_DigitalPower_SDK_5_02_01_00\c2000ware\driverlib\f28004x\driverlib\sysct
     328 00000001 0201          MOVB      ACC,#1                ; [CPU_ALU] |875| 
     329 00000002 8F05          MOVL      XAR4,#381730          ; [CPU_ARAU] |875| 
         00000003 D322 
     330 00000004 98C4          OR        *+XAR4[0],AL          ; [CPU_ALU] |875| 
     331 00000005 99CC          OR        *+XAR4[1],AH          ; [CPU_ALU] |875| 
     332 00000006 0204          MOVB      ACC,#4                ; [CPU_ALU] |875| 
     333 00000007 98C4          OR        *+XAR4[0],AL          ; [CPU_ALU] |875| 
     334 00000008 99CC          OR        *+XAR4[1],AH          ; [CPU_ALU] |875| 
     335 00000009 0208          MOVB      ACC,#8                ; [CPU_ALU] |875| 
     336 0000000a 98C4          OR        *+XAR4[0],AL          ; [CPU_ALU] |875| 
     337 0000000b 99CC          OR        *+XAR4[1],AH          ; [CPU_ALU] |875| 
     338 0000000c 0210          MOVB      ACC,#16               ; [CPU_ALU] |875| 
     339 0000000d 98C4          OR        *+XAR4[0],AL          ; [CPU_ALU] |875| 
     340 0000000e 99CC          OR        *+XAR4[1],AH          ; [CPU_ALU] |875| 
     341 0000000f 0220          MOVB      ACC,#32               ; [CPU_ALU] |875| 
     342 00000010 98C4          OR        *+XAR4[0],AL          ; [CPU_ALU] |875| 
     343 00000011 99CC          OR        *+XAR4[1],AH          ; [CPU_ALU] |875| 
     344 00000012 06C4          MOVL      ACC,*+XAR4[0]         ; [CPU_ALU] |875| 
     345 00000013 5101          OR        AH,#1                 ; [CPU_ALU] |875| 
     346 00000014 1EC4          MOVL      *+XAR4[0],ACC         ; [CPU_ALU] |875| 
     347 00000015 06C4          MOVL      ACC,*+XAR4[0]         ; [CPU_ALU] |875| 
     348 00000016 5104          OR        AH,#4                 ; [CPU_ALU] |875| 
     349 00000017 1EC4          MOVL      *+XAR4[0],ACC         ; [CPU_ALU] |875| 
     350 00000018 0201          MOVB      ACC,#1                ; [CPU_ALU] |875| 
     351 00000019 8F05          MOVL      XAR4,#381734          ; [CPU_ARAU] |875| 
         0000001a D326 
     352 0000001b 98C4          OR        *+XAR4[0],AL          ; [CPU_ALU] |875| 
     353 0000001c 99CC          OR        *+XAR4[1],AH          ; [CPU_ALU] |875| 
     354 0000001d 0202          MOVB      ACC,#2                ; [CPU_ALU] |875| 
     355 0000001e 98C4          OR        *+XAR4[0],AL          ; [CPU_ALU] |875| 
     356 0000001f 99CC          OR        *+XAR4[1],AH          ; [CPU_ALU] |875| 
     357 00000020 0204          MOVB      ACC,#4                ; [CPU_ALU] |875| 
     358 00000021 98C4          OR        *+XAR4[0],AL          ; [CPU_ALU] |875| 
     359 00000022 99CC          OR        *+XAR4[1],AH          ; [CPU_ALU] |875| 
     360 00000023 0208          MOVB      ACC,#8                ; [CPU_ALU] |875| 
     361 00000024 98C4          OR        *+XAR4[0],AL          ; [CPU_ALU] |875| 
     362 00000025 99CC          OR        *+XAR4[1],AH          ; [CPU_ALU] |875| 
     363 00000026 0210          MOVB      ACC,#16               ; [CPU_ALU] |875| 
     364 00000027 98C4          OR        *+XAR4[0],AL          ; [CPU_ALU] |875| 
     365 00000028 99CC          OR        *+XAR4[1],AH          ; [CPU_ALU] |875| 
     366 00000029 0220          MOVB      ACC,#32               ; [CPU_ALU] |875| 
     367 0000002a 98C4          OR        *+XAR4[0],AL          ; [CPU_ALU] |875| 
     368 0000002b 99CC          OR        *+XAR4[1],AH          ; [CPU_ALU] |875| 
     369 0000002c 0240          MOVB      ACC,#64               ; [CPU_ALU] |875| 
     370 0000002d 98C4          OR        *+XAR4[0],AL          ; [CPU_ALU] |875| 
     371 0000002e 99CC          OR        *+XAR4[1],AH          ; [CPU_ALU] |875| 
     372 0000002f 0280          MOVB      ACC,#128              ; [CPU_ALU] |875| 
     373 00000030 98C4          OR        *+XAR4[0],AL          ; [CPU_ALU] |875| 
     374 00000031 99CC          OR        *+XAR4[1],AH          ; [CPU_ALU] |875| 
     375 00000032 0201          MOVB      ACC,#1                ; [CPU_ALU] |875| 
     376 00000033 8F05          MOVL      XAR4,#381736          ; [CPU_ARAU] |875| 
         00000034 D328 
TMS320C2000 Assembler PC v22.6.1 Tue Jul  2 19:04:16 2024

Copyright (c) 1996-2018 Texas Instruments Incorporated
device.asm                                                           PAGE    8

     377 00000035 98C4          OR        *+XAR4[0],AL          ; [CPU_ALU] |875| 
     378 00000036 99CC          OR        *+XAR4[1],AH          ; [CPU_ALU] |875| 
     379 00000037 0202          MOVB      ACC,#2                ; [CPU_ALU] |875| 
     380 00000038 98C4          OR        *+XAR4[0],AL          ; [CPU_ALU] |875| 
     381 00000039 99CC          OR        *+XAR4[1],AH          ; [CPU_ALU] |875| 
     382 0000003a 0204          MOVB      ACC,#4                ; [CPU_ALU] |875| 
     383 0000003b 98C4          OR        *+XAR4[0],AL          ; [CPU_ALU] |875| 
     384 0000003c 99CC          OR        *+XAR4[1],AH          ; [CPU_ALU] |875| 
     385 0000003d 0208          MOVB      ACC,#8                ; [CPU_ALU] |875| 
     386 0000003e 98C4          OR        *+XAR4[0],AL          ; [CPU_ALU] |875| 
     387 0000003f 99CC          OR        *+XAR4[1],AH          ; [CPU_ALU] |875| 
     388 00000040 0210          MOVB      ACC,#16               ; [CPU_ALU] |875| 
     389 00000041 98C4          OR        *+XAR4[0],AL          ; [CPU_ALU] |875| 
     390 00000042 99CC          OR        *+XAR4[1],AH          ; [CPU_ALU] |875| 
     391 00000043 0220          MOVB      ACC,#32               ; [CPU_ALU] |875| 
     392 00000044 98C4          OR        *+XAR4[0],AL          ; [CPU_ALU] |875| 
     393 00000045 99CC          OR        *+XAR4[1],AH          ; [CPU_ALU] |875| 
     394 00000046 0240          MOVB      ACC,#64               ; [CPU_ALU] |875| 
     395 00000047 98C4          OR        *+XAR4[0],AL          ; [CPU_ALU] |875| 
     396 00000048 99CC          OR        *+XAR4[1],AH          ; [CPU_ALU] |875| 
     397 00000049 0201          MOVB      ACC,#1                ; [CPU_ALU] |875| 
     398 0000004a 8F05          MOVL      XAR4,#381738          ; [CPU_ARAU] |875| 
         0000004b D32A 
     399 0000004c 98C4          OR        *+XAR4[0],AL          ; [CPU_ALU] |875| 
     400 0000004d 99CC          OR        *+XAR4[1],AH          ; [CPU_ALU] |875| 
     401 0000004e 0202          MOVB      ACC,#2                ; [CPU_ALU] |875| 
     402 0000004f 98C4          OR        *+XAR4[0],AL          ; [CPU_ALU] |875| 
     403 00000050 99CC          OR        *+XAR4[1],AH          ; [CPU_ALU] |875| 
     404 00000051 0201          MOVB      ACC,#1                ; [CPU_ALU] |875| 
     405 00000052 8F05          MOVL      XAR4,#381742          ; [CPU_ARAU] |875| 
         00000053 D32E 
     406 00000054 98C4          OR        *+XAR4[0],AL          ; [CPU_ALU] |875| 
     407 00000055 99CC          OR        *+XAR4[1],AH          ; [CPU_ALU] |875| 
     408 00000056 8F05          MOVL      XAR4,#381744          ; [CPU_ARAU] |875| 
         00000057 D330 
     409 00000058 98C4          OR        *+XAR4[0],AL          ; [CPU_ALU] |875| 
     410 00000059 99CC          OR        *+XAR4[1],AH          ; [CPU_ALU] |875| 
     411 0000005a 0202          MOVB      ACC,#2                ; [CPU_ALU] |875| 
     412 0000005b 98C4          OR        *+XAR4[0],AL          ; [CPU_ALU] |875| 
     413 0000005c 99CC          OR        *+XAR4[1],AH          ; [CPU_ALU] |875| 
     414 0000005d 0201          MOVB      ACC,#1                ; [CPU_ALU] |875| 
     415 0000005e 8F05          MOVL      XAR4,#381746          ; [CPU_ARAU] |875| 
         0000005f D332 
     416 00000060 98C4          OR        *+XAR4[0],AL          ; [CPU_ALU] |875| 
     417 00000061 99CC          OR        *+XAR4[1],AH          ; [CPU_ALU] |875| 
     418 00000062 0202          MOVB      ACC,#2                ; [CPU_ALU] |875| 
     419 00000063 98C4          OR        *+XAR4[0],AL          ; [CPU_ALU] |875| 
     420 00000064 99CC          OR        *+XAR4[1],AH          ; [CPU_ALU] |875| 
     421 00000065 0201          MOVB      ACC,#1                ; [CPU_ALU] |875| 
     422 00000066 8F05          MOVL      XAR4,#381748          ; [CPU_ARAU] |875| 
         00000067 D334 
     423 00000068 98C4          OR        *+XAR4[0],AL          ; [CPU_ALU] |875| 
     424 00000069 99CC          OR        *+XAR4[1],AH          ; [CPU_ALU] |875| 
     425 0000006a 8F05          MOVL      XAR4,#381750          ; [CPU_ARAU] |875| 
         0000006b D336 
TMS320C2000 Assembler PC v22.6.1 Tue Jul  2 19:04:16 2024

Copyright (c) 1996-2018 Texas Instruments Incorporated
device.asm                                                           PAGE    9

     426 0000006c 98C4          OR        *+XAR4[0],AL          ; [CPU_ALU] |875| 
     427 0000006d 99CC          OR        *+XAR4[1],AH          ; [CPU_ALU] |875| 
     428 0000006e 0202          MOVB      ACC,#2                ; [CPU_ALU] |875| 
     429 0000006f 98C4          OR        *+XAR4[0],AL          ; [CPU_ALU] |875| 
     430 00000070 99CC          OR        *+XAR4[1],AH          ; [CPU_ALU] |875| 
     431 00000071 0201          MOVB      ACC,#1                ; [CPU_ALU] |875| 
     432 00000072 8F05          MOVL      XAR4,#381756          ; [CPU_ARAU] |875| 
         00000073 D33C 
     433 00000074 98C4          OR        *+XAR4[0],AL          ; [CPU_ALU] |875| 
     434 00000075 99CC          OR        *+XAR4[1],AH          ; [CPU_ALU] |875| 
     435 00000076 0202          MOVB      ACC,#2                ; [CPU_ALU] |875| 
     436 00000077 98C4          OR        *+XAR4[0],AL          ; [CPU_ALU] |875| 
     437 00000078 99CC          OR        *+XAR4[1],AH          ; [CPU_ALU] |875| 
     438 00000079 0204          MOVB      ACC,#4                ; [CPU_ALU] |875| 
     439 0000007a 98C4          OR        *+XAR4[0],AL          ; [CPU_ALU] |875| 
     440 0000007b 99CC          OR        *+XAR4[1],AH          ; [CPU_ALU] |875| 
     441 0000007c 0201          MOVB      ACC,#1                ; [CPU_ALU] |875| 
     442 0000007d 8F05          MOVL      XAR4,#381758          ; [CPU_ARAU] |875| 
         0000007e D33E 
     443 0000007f 98C4          OR        *+XAR4[0],AL          ; [CPU_ALU] |875| 
     444 00000080 99CC          OR        *+XAR4[1],AH          ; [CPU_ALU] |875| 
     445 00000081 0202          MOVB      ACC,#2                ; [CPU_ALU] |875| 
     446 00000082 98C4          OR        *+XAR4[0],AL          ; [CPU_ALU] |875| 
     447 00000083 99CC          OR        *+XAR4[1],AH          ; [CPU_ALU] |875| 
     448 00000084 0204          MOVB      ACC,#4                ; [CPU_ALU] |875| 
     449 00000085 98C4          OR        *+XAR4[0],AL          ; [CPU_ALU] |875| 
     450 00000086 99CC          OR        *+XAR4[1],AH          ; [CPU_ALU] |875| 
     451 00000087 0208          MOVB      ACC,#8                ; [CPU_ALU] |875| 
     452 00000088 98C4          OR        *+XAR4[0],AL          ; [CPU_ALU] |875| 
     453 00000089 99CC          OR        *+XAR4[1],AH          ; [CPU_ALU] |875| 
     454 0000008a 0210          MOVB      ACC,#16               ; [CPU_ALU] |875| 
     455 0000008b 98C4          OR        *+XAR4[0],AL          ; [CPU_ALU] |875| 
     456 0000008c 99CC          OR        *+XAR4[1],AH          ; [CPU_ALU] |875| 
     457 0000008d 0220          MOVB      ACC,#32               ; [CPU_ALU] |875| 
     458 0000008e 98C4          OR        *+XAR4[0],AL          ; [CPU_ALU] |875| 
     459 0000008f 99CC          OR        *+XAR4[1],AH          ; [CPU_ALU] |875| 
     460 00000090 0240          MOVB      ACC,#64               ; [CPU_ALU] |875| 
     461 00000091 98C4          OR        *+XAR4[0],AL          ; [CPU_ALU] |875| 
     462 00000092 99CC          OR        *+XAR4[1],AH          ; [CPU_ALU] |875| 
     463 00000093 0201          MOVB      ACC,#1                ; [CPU_ALU] |875| 
     464 00000094 8F05          MOVL      XAR4,#381760          ; [CPU_ARAU] |875| 
         00000095 D340 
     465 00000096 98C4          OR        *+XAR4[0],AL          ; [CPU_ALU] |875| 
     466 00000097 99CC          OR        *+XAR4[1],AH          ; [CPU_ALU] |875| 
     467 00000098 0202          MOVB      ACC,#2                ; [CPU_ALU] |875| 
     468 00000099 98C4          OR        *+XAR4[0],AL          ; [CPU_ALU] |875| 
     469 0000009a 99CC          OR        *+XAR4[1],AH          ; [CPU_ALU] |875| 
     470 0000009b 0204          MOVB      ACC,#4                ; [CPU_ALU] |875| 
     471 0000009c 98C4          OR        *+XAR4[0],AL          ; [CPU_ALU] |875| 
     472 0000009d 99CC          OR        *+XAR4[1],AH          ; [CPU_ALU] |875| 
     473 0000009e 0208          MOVB      ACC,#8                ; [CPU_ALU] |875| 
     474 0000009f 98C4          OR        *+XAR4[0],AL          ; [CPU_ALU] |875| 
     475 000000a0 99CC          OR        *+XAR4[1],AH          ; [CPU_ALU] |875| 
     476 000000a1 0210          MOVB      ACC,#16               ; [CPU_ALU] |875| 
     477 000000a2 98C4          OR        *+XAR4[0],AL          ; [CPU_ALU] |875| 
TMS320C2000 Assembler PC v22.6.1 Tue Jul  2 19:04:16 2024

Copyright (c) 1996-2018 Texas Instruments Incorporated
device.asm                                                           PAGE   10

     478 000000a3 99CC          OR        *+XAR4[1],AH          ; [CPU_ALU] |875| 
     479 000000a4 0220          MOVB      ACC,#32               ; [CPU_ALU] |875| 
     480 000000a5 98C4          OR        *+XAR4[0],AL          ; [CPU_ALU] |875| 
     481 000000a6 99CC          OR        *+XAR4[1],AH          ; [CPU_ALU] |875| 
     482 000000a7 0240          MOVB      ACC,#64               ; [CPU_ALU] |875| 
     483 000000a8 98C4          OR        *+XAR4[0],AL          ; [CPU_ALU] |875| 
     484 000000a9 99CC          OR        *+XAR4[1],AH          ; [CPU_ALU] |875| 
     485 000000aa 8F05          MOVL      XAR4,#381762          ; [CPU_ARAU] |875| 
         000000ab D342 
     486 000000ac 06C4          MOVL      ACC,*+XAR4[0]         ; [CPU_ALU] |875| 
     487 000000ad 5101          OR        AH,#1                 ; [CPU_ALU] |875| 
     488 000000ae 1EC4          MOVL      *+XAR4[0],ACC         ; [CPU_ALU] |875| 
     489 000000af 06C4          MOVL      ACC,*+XAR4[0]         ; [CPU_ALU] |875| 
     490 000000b0 5102          OR        AH,#2                 ; [CPU_ALU] |875| 
     491 000000b1 1EC4          MOVL      *+XAR4[0],ACC         ; [CPU_ALU] |875| 
     492 000000b2 0201          MOVB      ACC,#1                ; [CPU_ALU] |875| 
     493 000000b3 8F05          MOVL      XAR4,#381768          ; [CPU_ARAU] |875| 
         000000b4 D348 
     494 000000b5 98C4          OR        *+XAR4[0],AL          ; [CPU_ALU] |875| 
     495 000000b6 99CC          OR        *+XAR4[1],AH          ; [CPU_ALU] |875| 
     496 000000b7 8F05          MOVL      XAR4,#381770          ; [CPU_ARAU] |875| 
         000000b8 D34A 
     497 000000b9 98C4          OR        *+XAR4[0],AL          ; [CPU_ALU] |875| 
     498 000000ba 99CC          OR        *+XAR4[1],AH          ; [CPU_ALU] |875| 
     499 000000bb 8F05          MOVL      XAR4,#381766          ; [CPU_ARAU] |875| 
         000000bc D346 
     500 000000bd 98C4          OR        *+XAR4[0],AL          ; [CPU_ALU] |875| 
     501 000000be 99CC          OR        *+XAR4[1],AH          ; [CPU_ALU] |875| 
     502 000000bf 0202          MOVB      ACC,#2                ; [CPU_ALU] |875| 
     503 000000c0 98C4          OR        *+XAR4[0],AL          ; [CPU_ALU] |875| 
     504 000000c1 99CC          OR        *+XAR4[1],AH          ; [CPU_ALU] |875| 
     505                      .dwpsn  file "C:\ti\C2000Ware_DigitalPower_SDK_5_02_01_00\c2000ware\driverlib\f28004x\driverlib\sysct
     506 000000c2 761A          EDIS      ; [CPU_ALU] |876| 
     507              $C$DW$27        .dwtag  DW_TAG_TI_branch
     508                      .dwattr $C$DW$27, DW_AT_low_pc(0x00)
     509                      .dwattr $C$DW$27, DW_AT_TI_return
     510              
     511 000000c3 0006          LRETR     ; [CPU_ALU] 
     512                      ; return occurs ; [] 
     513                      .dwattr $C$DW$26, DW_AT_TI_end_file("../device/device.c")
     514                      .dwattr $C$DW$26, DW_AT_TI_end_line(0xe2)
     515                      .dwattr $C$DW$26, DW_AT_TI_end_column(0x01)
     516                      .dwendentry
     517                      .dwendtag $C$DW$26
     518              
     519 00000000               .sect   ".text:Device_init"
     520                      .clink
     521                      .global ||Device_init||
     522              
     523              $C$DW$28        .dwtag  DW_TAG_subprogram
     524                      .dwattr $C$DW$28, DW_AT_name("Device_init")
     525                      .dwattr $C$DW$28, DW_AT_low_pc(||Device_init||)
     526                      .dwattr $C$DW$28, DW_AT_high_pc(0x00)
     527                      .dwattr $C$DW$28, DW_AT_linkage_name("Device_init")
     528                      .dwattr $C$DW$28, DW_AT_external
TMS320C2000 Assembler PC v22.6.1 Tue Jul  2 19:04:16 2024

Copyright (c) 1996-2018 Texas Instruments Incorporated
device.asm                                                           PAGE   11

     529                      .dwattr $C$DW$28, DW_AT_decl_file("../device/device.c")
     530                      .dwattr $C$DW$28, DW_AT_decl_line(0x3f)
     531                      .dwattr $C$DW$28, DW_AT_decl_column(0x06)
     532                      .dwattr $C$DW$28, DW_AT_TI_max_frame_size(-4)
     533                      .dwpsn  file "../device/device.c",line 64,column 1,is_stmt,address ||Device_init||,isa 0
     534              
     535                      .dwfde $C$DW$CIE, ||Device_init||
     536              
     537              ;***************************************************************
     538              ;* FNAME: Device_init                   FR SIZE:   2           *
     539              ;*                                                             *
     540              ;* FUNCTION ENVIRONMENT                                        *
     541              ;*                                                             *
     542              ;* FUNCTION PROPERTIES                                         *
     543              ;*                            2 Parameter,  0 Auto,  0 SOE     *
     544              ;***************************************************************
     545              
     546 00000000       ||Device_init||:
     547              ;* AR4   assigned to $O$v1
     548                      .dwcfi  cfa_offset, -2
     549                      .dwcfi  save_reg_to_mem, 26, 0
     550 00000000 FE02          ADDB      SP,#2                 ; [CPU_ARAU] 
     551                      .dwcfi  cfa_offset, -4
     552                      .dwpsn  file "C:\ti\C2000Ware_DigitalPower_SDK_5_02_01_00\c2000ware\driverlib\f28004x\driverlib\sysct
     553 00000001 7622          EALLOW    ; [CPU_ALU] |1596| 
     554                      .dwpsn  file "C:\ti\C2000Ware_DigitalPower_SDK_5_02_01_00\c2000ware\driverlib\f28004x\driverlib\sysct
     555 00000002 F5A9          MOV       AL,*(0:0x7029)        ; [CPU_ALU] |1601| 
         00000003 7029 
     556 00000004 5068          ORB       AL,#0x68              ; [CPU_ALU] |1601| 
     557 00000005 F4A9          MOV       *(0:0x7029),AL        ; [CPU_ALU] |1601| 
         00000006 7029 
     558 00000007 F627   RPT #39 || NOP
         00000008 7700 
     559                      .dwpsn  file "C:\ti\C2000Ware_DigitalPower_SDK_5_02_01_00\c2000ware\driverlib\f28004x\driverlib\sysct
     560 00000009 761A          EDIS      ; [CPU_ALU] |1604| 
     561                      .dwpsn  file "../device/device.c",line 78,column 5,is_stmt,isa 0
     562 0000000a 8F40!         MOVL      XAR5,#||RamfuncsLoadStart|| ; [CPU_ARAU] |78| 
         0000000b 0000 
     563 0000000c 28A8!         MOV       AH,#$HI16(||RamfuncsLoadSize||) + 0 ; [CPU_ALU] |78| 
         0000000d 0000 
     564 0000000e 8F00!         MOVL      XAR4,#||RamfuncsRunStart|| ; [CPU_ARAU] |78| 
         0000000f 0000 
     565 00000010 FF69          SPM       #0                    ; [CPU_ALU] 
     566 00000011 28A9!         MOV       AL,#$LO16(||RamfuncsLoadSize||) + 0 ; [CPU_ALU] |78| 
         00000012 0000 
     567              $C$DW$29        .dwtag  DW_TAG_TI_branch
     568                      .dwattr $C$DW$29, DW_AT_low_pc(0x00)
     569                      .dwattr $C$DW$29, DW_AT_name("memcpy")
     570                      .dwattr $C$DW$29, DW_AT_TI_call
     571              
     572 00000013 7640!         LCR       #||memcpy||           ; [CPU_ALU] |78| 
         00000014 0000 
     573                      ; call occurs [#||memcpy||] ; [] |78| 
     574                      .dwpsn  file "../device/device.c",line 80,column 5,is_stmt,isa 0
     575 00000015 28A9!         MOV       AL,#$LO16(||isrcodefuncsLoadSize||) + 0 ; [CPU_ALU] |80| 
TMS320C2000 Assembler PC v22.6.1 Tue Jul  2 19:04:16 2024

Copyright (c) 1996-2018 Texas Instruments Incorporated
device.asm                                                           PAGE   12

         00000016 0000 
     576 00000017 28A8!         MOV       AH,#$HI16(||isrcodefuncsLoadSize||) + 0 ; [CPU_ALU] |80| 
         00000018 0000 
     577 00000019 8F40!         MOVL      XAR5,#||isrcodefuncsLoadStart|| ; [CPU_ARAU] |80| 
         0000001a 0000 
     578 0000001b 8F00!         MOVL      XAR4,#||isrcodefuncsRunStart|| ; [CPU_ARAU] |80| 
         0000001c 0000 
     579              $C$DW$30        .dwtag  DW_TAG_TI_branch
     580                      .dwattr $C$DW$30, DW_AT_low_pc(0x00)
     581                      .dwattr $C$DW$30, DW_AT_name("memcpy")
     582                      .dwattr $C$DW$30, DW_AT_TI_call
     583              
     584 0000001d 7640!         LCR       #||memcpy||           ; [CPU_ALU] |80| 
         0000001e 0000 
     585                      ; call occurs [#||memcpy||] ; [] |80| 
     586                      .dwpsn  file "../device/device.c",line 88,column 5,is_stmt,isa 0
     587 0000001f 8F05          MOVL      XAR4,#381046          ; [CPU_ARAU] |88| 
         00000020 D076 
     588 00000021 761F!         MOVW      DP,#||xCoord||        ; [CPU_ARAU] 
         00000022 0000 
     589 00000023 2901          CLRC      SXM                   ; [CPU_ALU] 
     590                      .dwpsn  file "../device/device.c",line 91,column 8,is_stmt,isa 0
     591 00000024 28AC          MOV       T,#24                 ; [CPU_ALU] |91| 
         00000025 0018 
     592                      .dwpsn  file "../device/device.c",line 89,column 8,is_stmt,isa 0
     593 00000026 06C4          MOVL      ACC,*+XAR4[0]         ; [CPU_ALU] |89| 
     594 00000027 18A9          AND       AL,#4095              ; [CPU_ALU] |89| 
         00000028 0FFF 
     595 00000029 9100          ANDB      AH,#0                 ; [CPU_ALU] |89| 
     596 0000002a 1E00!         MOVL      @||xCoord||,ACC       ; [CPU_ALU] |89| 
     597                      .dwpsn  file "../device/device.c",line 88,column 5,is_stmt,isa 0
     598 0000002b A800!         MOVL      @||dieid||,XAR4       ; [CPU_ALU] |88| 
     599                      .dwpsn  file "../device/device.c",line 90,column 8,is_stmt,isa 0
     600 0000002c 06C4          MOVL      ACC,*+XAR4[0]         ; [CPU_ALU] |90| 
     601 0000002d FF4B          SFR       ACC,12                ; [CPU_ALU] |90| 
     602 0000002e 18A9          AND       AL,#4095              ; [CPU_ALU] |90| 
         0000002f 0FFF 
     603 00000030 9100          ANDB      AH,#0                 ; [CPU_ALU] |90| 
     604 00000031 1E00!         MOVL      @||yCoord||,ACC       ; [CPU_ALU] |90| 
     605                      .dwpsn  file "../device/device.c",line 91,column 8,is_stmt,isa 0
     606 00000032 06C4          MOVL      ACC,*+XAR4[0]         ; [CPU_ALU] |91| 
     607 00000033 5622          LSRL      ACC,T                 ; [CPU_ALU] |91| 
     608 00000034 9B00          MOVB      AH,#0                 ; [CPU_ALU] |91| 
     609 00000035 903F          ANDB      AL,#0x3f              ; [CPU_ALU] |91| 
     610 00000036 1E00!         MOVL      @||WfrNum||,ACC       ; [CPU_ALU] |91| 
     611                      .dwpsn  file "../device/device.c",line 92,column 8,is_stmt,isa 0
     612 00000037 06D4          MOVL      ACC,*+XAR4[2]         ; [CPU_ALU] |92| 
     613 00000038 91FF          ANDB      AH,#255               ; [CPU_ALU] |92| 
     614 00000039 1E00!         MOVL      @||Scribe||,ACC       ; [CPU_ALU] |92| 
     615                      .dwpsn  file "../device/device.c",line 97,column 5,is_stmt,isa 0
     616 0000003a 9A8A          MOV       AL,#138               ; [CPU_ALU] |97| 
     617 0000003b 28A8          MOV       AH,#32769             ; [CPU_ALU] |97| 
         0000003c 8001 
     618              $C$DW$31        .dwtag  DW_TAG_TI_branch
     619                      .dwattr $C$DW$31, DW_AT_low_pc(0x00)
TMS320C2000 Assembler PC v22.6.1 Tue Jul  2 19:04:16 2024

Copyright (c) 1996-2018 Texas Instruments Incorporated
device.asm                                                           PAGE   13

     620                      .dwattr $C$DW$31, DW_AT_name("SysCtl_setClock")
     621                      .dwattr $C$DW$31, DW_AT_TI_call
     622              
     623 0000003d 7640!         LCR       #||SysCtl_setClock||  ; [CPU_ALU] |97| 
         0000003e 0000 
     624                      ; call occurs [#||SysCtl_setClock||] ; [] |97| 
     625                      .dwpsn  file "C:\ti\C2000Ware_DigitalPower_SDK_5_02_01_00\c2000ware\driverlib\f28004x\driverlib\sysct
     626 0000003f 7622          EALLOW    ; [CPU_ALU] |1063| 
     627                      .dwpsn  file "C:\ti\C2000Ware_DigitalPower_SDK_5_02_01_00\c2000ware\driverlib\f28004x\driverlib\sysct
     628 00000040 8F05          MOVL      XAR4,#381484          ; [CPU_ARAU] |1064| 
         00000041 D22C 
     629 00000042 06C4          MOVL      ACC,*+XAR4[0]         ; [CPU_ALU] |1064| 
     630 00000043 18A9          AND       AL,#65528             ; [CPU_ALU] |1064| 
         00000044 FFF8 
     631 00000045 5001          ORB       AL,#0x01              ; [CPU_ALU] |1064| 
     632 00000046 1EC4          MOVL      *+XAR4[0],ACC         ; [CPU_ALU] |1064| 
     633                      .dwpsn  file "C:\ti\C2000Ware_DigitalPower_SDK_5_02_01_00\c2000ware\driverlib\f28004x\driverlib\sysct
     634 00000047 761A          EDIS      ; [CPU_ALU] |1067| 
     635                      .dwpsn  file "../device/device.c",line 119,column 5,is_stmt,isa 0
     636 00000048 8F45          MOVL      XAR5,#391168          ; [CPU_ARAU] |119| 
         00000049 F800 
     637 0000004a 8F05          MOVL      XAR4,#391936          ; [CPU_ARAU] |119| 
         0000004b FB00 
     638 0000004c A842          MOVL      *-SP[2],XAR4          ; [CPU_ALU] |119| 
     639 0000004d A0A9          MOVL      ACC,XAR5              ; [CPU_ALU] |119| 
     640 0000004e D404          MOVB      XAR4,#4               ; [CPU_ALU] |119| 
     641              $C$DW$32        .dwtag  DW_TAG_TI_branch
     642                      .dwattr $C$DW$32, DW_AT_low_pc(0x00)
     643                      .dwattr $C$DW$32, DW_AT_name("Flash_initModule")
     644                      .dwattr $C$DW$32, DW_AT_TI_call
     645              
     646 0000004f 7640!         LCR       #||Flash_initModule|| ; [CPU_ALU] |119| 
         00000050 0000 
     647                      ; call occurs [#||Flash_initModule||] ; [] |119| 
     648                      .dwpsn  file "../device/device.c",line 125,column 5,is_stmt,isa 0
     649              $C$DW$33        .dwtag  DW_TAG_TI_branch
     650                      .dwattr $C$DW$33, DW_AT_low_pc(0x00)
     651                      .dwattr $C$DW$33, DW_AT_name("Device_enableAllPeripherals")
     652                      .dwattr $C$DW$33, DW_AT_TI_call
     653              
     654 00000051 7640!         LCR       #||Device_enableAllPeripherals|| ; [CPU_ALU] |125| 
         00000052 0000 
     655                      ; call occurs [#||Device_enableAllPeripherals||] ; [] |125| 
     656 00000053 FE82          SUBB      SP,#2                 ; [CPU_ARAU] 
     657                      .dwcfi  cfa_offset, -2
     658              $C$DW$34        .dwtag  DW_TAG_TI_branch
     659                      .dwattr $C$DW$34, DW_AT_low_pc(0x00)
     660                      .dwattr $C$DW$34, DW_AT_TI_return
     661              
     662 00000054 0006          LRETR     ; [CPU_ALU] 
     663                      ; return occurs ; [] 
     664                      .dwattr $C$DW$28, DW_AT_TI_end_file("../device/device.c")
     665                      .dwattr $C$DW$28, DW_AT_TI_end_line(0x91)
     666                      .dwattr $C$DW$28, DW_AT_TI_end_column(0x01)
     667                      .dwendentry
TMS320C2000 Assembler PC v22.6.1 Tue Jul  2 19:04:16 2024

Copyright (c) 1996-2018 Texas Instruments Incorporated
device.asm                                                           PAGE   14

     668                      .dwendtag $C$DW$28
     669              
     670              ;**************************************************************
     671              ;* UNDEFINED EXTERNAL REFERENCES                              *
     672              ;**************************************************************
     673                      .global ||Flash_initModule||
     674                      .global ||RamfuncsLoadStart||
     675                      .global ||RamfuncsLoadSize||
     676                      .global ||RamfuncsRunStart||
     677                      .global ||isrcodefuncsLoadStart||
     678                      .global ||isrcodefuncsLoadSize||
     679                      .global ||isrcodefuncsRunStart||
     680                      .global ||SysCtl_setClock||
     681                      .global ||memcpy||
     682              
     683              ;***************************************************************
     684              ;* BUILD ATTRIBUTES                                            *
     685              ;***************************************************************
     686                      .battr "c28xabi", Tag_File, 1, Tag_float_args(0)
     687                      .battr "c28xabi", Tag_File, 1, Tag_double_args(0)
     688                      .dwattr $C$DW$CU, DW_AT_language(DW_LANG_C)
     689              
     690              ;***************************************************************
     691              ;* DWARF CIE ENTRIES                                           *
     692              ;***************************************************************
     693              
     694              $C$DW$CIE       .dwcie 26
     695                      .dwcfi  cfa_register, 20
     696                      .dwcfi  cfa_offset, 0
     697                      .dwcfi  same_value, 28
     698                      .dwcfi  same_value, 6
     699                      .dwcfi  same_value, 7
     700                      .dwcfi  same_value, 8
     701                      .dwcfi  same_value, 9
     702                      .dwcfi  same_value, 10
     703                      .dwcfi  same_value, 11
     704                      .dwcfi  same_value, 59
     705                      .dwcfi  same_value, 63
     706                      .dwcfi  same_value, 67
     707                      .dwcfi  same_value, 71
     708                      .dwendentry
     709                      .dwendtag $C$DW$CU
     710              
     711              
     712              ;***************************************************************
     713              ;* TYPE INFORMATION                                            *
     714              ;***************************************************************
     715              
     716              $C$DW$TU$19     .dwtag  DW_TAG_type_unit
     717                      .dwmtype  $C$DW$T$19
     718              
     719              $C$DW$T$19      .dwtag  DW_TAG_enumeration_type
     720                      .dwattr $C$DW$T$19, DW_AT_byte_size(0x01)
     721              $C$DW$35        .dwtag  DW_TAG_enumerator
     722                      .dwattr $C$DW$35, DW_AT_name("SYSCTL_PERIPH_CLK_CLA1")
TMS320C2000 Assembler PC v22.6.1 Tue Jul  2 19:04:16 2024

Copyright (c) 1996-2018 Texas Instruments Incorporated
device.asm                                                           PAGE   15

     723                      .dwattr $C$DW$35, DW_AT_const_value(0x00)
     724                      .dwattr $C$DW$35, DW_AT_decl_file("C:\ti\C2000Ware_DigitalPower_SDK_5_02_01_00\c2000ware\driverlib\f2
     725                      .dwattr $C$DW$35, DW_AT_decl_line(0x139)
     726                      .dwattr $C$DW$35, DW_AT_decl_column(0x05)
     727              
     728              $C$DW$36        .dwtag  DW_TAG_enumerator
     729                      .dwattr $C$DW$36, DW_AT_name("SYSCTL_PERIPH_CLK_DMA")
     730                      .dwattr $C$DW$36, DW_AT_const_value(0x200)
     731                      .dwattr $C$DW$36, DW_AT_decl_file("C:\ti\C2000Ware_DigitalPower_SDK_5_02_01_00\c2000ware\driverlib\f2
     732                      .dwattr $C$DW$36, DW_AT_decl_line(0x13a)
     733                      .dwattr $C$DW$36, DW_AT_decl_column(0x05)
     734              
     735              $C$DW$37        .dwtag  DW_TAG_enumerator
     736                      .dwattr $C$DW$37, DW_AT_name("SYSCTL_PERIPH_CLK_TIMER0")
     737                      .dwattr $C$DW$37, DW_AT_const_value(0x300)
     738                      .dwattr $C$DW$37, DW_AT_decl_file("C:\ti\C2000Ware_DigitalPower_SDK_5_02_01_00\c2000ware\driverlib\f2
     739                      .dwattr $C$DW$37, DW_AT_decl_line(0x13b)
     740                      .dwattr $C$DW$37, DW_AT_decl_column(0x05)
     741              
     742              $C$DW$38        .dwtag  DW_TAG_enumerator
     743                      .dwattr $C$DW$38, DW_AT_name("SYSCTL_PERIPH_CLK_TIMER1")
     744                      .dwattr $C$DW$38, DW_AT_const_value(0x400)
     745                      .dwattr $C$DW$38, DW_AT_decl_file("C:\ti\C2000Ware_DigitalPower_SDK_5_02_01_00\c2000ware\driverlib\f2
     746                      .dwattr $C$DW$38, DW_AT_decl_line(0x13c)
     747                      .dwattr $C$DW$38, DW_AT_decl_column(0x05)
     748              
     749              $C$DW$39        .dwtag  DW_TAG_enumerator
     750                      .dwattr $C$DW$39, DW_AT_name("SYSCTL_PERIPH_CLK_TIMER2")
     751                      .dwattr $C$DW$39, DW_AT_const_value(0x500)
     752                      .dwattr $C$DW$39, DW_AT_decl_file("C:\ti\C2000Ware_DigitalPower_SDK_5_02_01_00\c2000ware\driverlib\f2
     753                      .dwattr $C$DW$39, DW_AT_decl_line(0x13d)
     754                      .dwattr $C$DW$39, DW_AT_decl_column(0x05)
     755              
     756              $C$DW$40        .dwtag  DW_TAG_enumerator
     757                      .dwattr $C$DW$40, DW_AT_name("SYSCTL_PERIPH_CLK_HRPWM")
     758                      .dwattr $C$DW$40, DW_AT_const_value(0x1000)
     759                      .dwattr $C$DW$40, DW_AT_decl_file("C:\ti\C2000Ware_DigitalPower_SDK_5_02_01_00\c2000ware\driverlib\f2
     760                      .dwattr $C$DW$40, DW_AT_decl_line(0x13e)
     761                      .dwattr $C$DW$40, DW_AT_decl_column(0x05)
     762              
     763              $C$DW$41        .dwtag  DW_TAG_enumerator
     764                      .dwattr $C$DW$41, DW_AT_name("SYSCTL_PERIPH_CLK_TBCLKSYNC")
     765                      .dwattr $C$DW$41, DW_AT_const_value(0x1200)
     766                      .dwattr $C$DW$41, DW_AT_decl_file("C:\ti\C2000Ware_DigitalPower_SDK_5_02_01_00\c2000ware\driverlib\f2
     767                      .dwattr $C$DW$41, DW_AT_decl_line(0x13f)
     768                      .dwattr $C$DW$41, DW_AT_decl_column(0x05)
     769              
     770              $C$DW$42        .dwtag  DW_TAG_enumerator
     771                      .dwattr $C$DW$42, DW_AT_name("SYSCTL_PERIPH_CLK_EPWM1")
     772                      .dwattr $C$DW$42, DW_AT_const_value(0x02)
     773                      .dwattr $C$DW$42, DW_AT_decl_file("C:\ti\C2000Ware_DigitalPower_SDK_5_02_01_00\c2000ware\driverlib\f2
     774                      .dwattr $C$DW$42, DW_AT_decl_line(0x140)
     775                      .dwattr $C$DW$42, DW_AT_decl_column(0x05)
     776              
     777              $C$DW$43        .dwtag  DW_TAG_enumerator
TMS320C2000 Assembler PC v22.6.1 Tue Jul  2 19:04:16 2024

Copyright (c) 1996-2018 Texas Instruments Incorporated
device.asm                                                           PAGE   16

     778                      .dwattr $C$DW$43, DW_AT_name("SYSCTL_PERIPH_CLK_EPWM2")
     779                      .dwattr $C$DW$43, DW_AT_const_value(0x102)
     780                      .dwattr $C$DW$43, DW_AT_decl_file("C:\ti\C2000Ware_DigitalPower_SDK_5_02_01_00\c2000ware\driverlib\f2
     781                      .dwattr $C$DW$43, DW_AT_decl_line(0x141)
     782                      .dwattr $C$DW$43, DW_AT_decl_column(0x05)
     783              
     784              $C$DW$44        .dwtag  DW_TAG_enumerator
     785                      .dwattr $C$DW$44, DW_AT_name("SYSCTL_PERIPH_CLK_EPWM3")
     786                      .dwattr $C$DW$44, DW_AT_const_value(0x202)
     787                      .dwattr $C$DW$44, DW_AT_decl_file("C:\ti\C2000Ware_DigitalPower_SDK_5_02_01_00\c2000ware\driverlib\f2
     788                      .dwattr $C$DW$44, DW_AT_decl_line(0x142)
     789                      .dwattr $C$DW$44, DW_AT_decl_column(0x05)
     790              
     791              $C$DW$45        .dwtag  DW_TAG_enumerator
     792                      .dwattr $C$DW$45, DW_AT_name("SYSCTL_PERIPH_CLK_EPWM4")
     793                      .dwattr $C$DW$45, DW_AT_const_value(0x302)
     794                      .dwattr $C$DW$45, DW_AT_decl_file("C:\ti\C2000Ware_DigitalPower_SDK_5_02_01_00\c2000ware\driverlib\f2
     795                      .dwattr $C$DW$45, DW_AT_decl_line(0x143)
     796                      .dwattr $C$DW$45, DW_AT_decl_column(0x05)
     797              
     798              $C$DW$46        .dwtag  DW_TAG_enumerator
     799                      .dwattr $C$DW$46, DW_AT_name("SYSCTL_PERIPH_CLK_EPWM5")
     800                      .dwattr $C$DW$46, DW_AT_const_value(0x402)
     801                      .dwattr $C$DW$46, DW_AT_decl_file("C:\ti\C2000Ware_DigitalPower_SDK_5_02_01_00\c2000ware\driverlib\f2
     802                      .dwattr $C$DW$46, DW_AT_decl_line(0x144)
     803                      .dwattr $C$DW$46, DW_AT_decl_column(0x05)
     804              
     805              $C$DW$47        .dwtag  DW_TAG_enumerator
     806                      .dwattr $C$DW$47, DW_AT_name("SYSCTL_PERIPH_CLK_EPWM6")
     807                      .dwattr $C$DW$47, DW_AT_const_value(0x502)
     808                      .dwattr $C$DW$47, DW_AT_decl_file("C:\ti\C2000Ware_DigitalPower_SDK_5_02_01_00\c2000ware\driverlib\f2
     809                      .dwattr $C$DW$47, DW_AT_decl_line(0x145)
     810                      .dwattr $C$DW$47, DW_AT_decl_column(0x05)
     811              
     812              $C$DW$48        .dwtag  DW_TAG_enumerator
     813                      .dwattr $C$DW$48, DW_AT_name("SYSCTL_PERIPH_CLK_EPWM7")
     814                      .dwattr $C$DW$48, DW_AT_const_value(0x602)
     815                      .dwattr $C$DW$48, DW_AT_decl_file("C:\ti\C2000Ware_DigitalPower_SDK_5_02_01_00\c2000ware\driverlib\f2
     816                      .dwattr $C$DW$48, DW_AT_decl_line(0x146)
     817                      .dwattr $C$DW$48, DW_AT_decl_column(0x05)
     818              
     819              $C$DW$49        .dwtag  DW_TAG_enumerator
     820                      .dwattr $C$DW$49, DW_AT_name("SYSCTL_PERIPH_CLK_EPWM8")
     821                      .dwattr $C$DW$49, DW_AT_const_value(0x702)
     822                      .dwattr $C$DW$49, DW_AT_decl_file("C:\ti\C2000Ware_DigitalPower_SDK_5_02_01_00\c2000ware\driverlib\f2
     823                      .dwattr $C$DW$49, DW_AT_decl_line(0x147)
     824                      .dwattr $C$DW$49, DW_AT_decl_column(0x05)
     825              
     826              $C$DW$50        .dwtag  DW_TAG_enumerator
     827                      .dwattr $C$DW$50, DW_AT_name("SYSCTL_PERIPH_CLK_ECAP1")
     828                      .dwattr $C$DW$50, DW_AT_const_value(0x03)
     829                      .dwattr $C$DW$50, DW_AT_decl_file("C:\ti\C2000Ware_DigitalPower_SDK_5_02_01_00\c2000ware\driverlib\f2
     830                      .dwattr $C$DW$50, DW_AT_decl_line(0x148)
     831                      .dwattr $C$DW$50, DW_AT_decl_column(0x05)
     832              
TMS320C2000 Assembler PC v22.6.1 Tue Jul  2 19:04:16 2024

Copyright (c) 1996-2018 Texas Instruments Incorporated
device.asm                                                           PAGE   17

     833              $C$DW$51        .dwtag  DW_TAG_enumerator
     834                      .dwattr $C$DW$51, DW_AT_name("SYSCTL_PERIPH_CLK_ECAP2")
     835                      .dwattr $C$DW$51, DW_AT_const_value(0x103)
     836                      .dwattr $C$DW$51, DW_AT_decl_file("C:\ti\C2000Ware_DigitalPower_SDK_5_02_01_00\c2000ware\driverlib\f2
     837                      .dwattr $C$DW$51, DW_AT_decl_line(0x149)
     838                      .dwattr $C$DW$51, DW_AT_decl_column(0x05)
     839              
     840              $C$DW$52        .dwtag  DW_TAG_enumerator
     841                      .dwattr $C$DW$52, DW_AT_name("SYSCTL_PERIPH_CLK_ECAP3")
     842                      .dwattr $C$DW$52, DW_AT_const_value(0x203)
     843                      .dwattr $C$DW$52, DW_AT_decl_file("C:\ti\C2000Ware_DigitalPower_SDK_5_02_01_00\c2000ware\driverlib\f2
     844                      .dwattr $C$DW$52, DW_AT_decl_line(0x14a)
     845                      .dwattr $C$DW$52, DW_AT_decl_column(0x05)
     846              
     847              $C$DW$53        .dwtag  DW_TAG_enumerator
     848                      .dwattr $C$DW$53, DW_AT_name("SYSCTL_PERIPH_CLK_ECAP4")
     849                      .dwattr $C$DW$53, DW_AT_const_value(0x303)
     850                      .dwattr $C$DW$53, DW_AT_decl_file("C:\ti\C2000Ware_DigitalPower_SDK_5_02_01_00\c2000ware\driverlib\f2
     851                      .dwattr $C$DW$53, DW_AT_decl_line(0x14b)
     852                      .dwattr $C$DW$53, DW_AT_decl_column(0x05)
     853              
     854              $C$DW$54        .dwtag  DW_TAG_enumerator
     855                      .dwattr $C$DW$54, DW_AT_name("SYSCTL_PERIPH_CLK_ECAP5")
     856                      .dwattr $C$DW$54, DW_AT_const_value(0x403)
     857                      .dwattr $C$DW$54, DW_AT_decl_file("C:\ti\C2000Ware_DigitalPower_SDK_5_02_01_00\c2000ware\driverlib\f2
     858                      .dwattr $C$DW$54, DW_AT_decl_line(0x14c)
     859                      .dwattr $C$DW$54, DW_AT_decl_column(0x05)
     860              
     861              $C$DW$55        .dwtag  DW_TAG_enumerator
     862                      .dwattr $C$DW$55, DW_AT_name("SYSCTL_PERIPH_CLK_ECAP6")
     863                      .dwattr $C$DW$55, DW_AT_const_value(0x503)
     864                      .dwattr $C$DW$55, DW_AT_decl_file("C:\ti\C2000Ware_DigitalPower_SDK_5_02_01_00\c2000ware\driverlib\f2
     865                      .dwattr $C$DW$55, DW_AT_decl_line(0x14d)
     866                      .dwattr $C$DW$55, DW_AT_decl_column(0x05)
     867              
     868              $C$DW$56        .dwtag  DW_TAG_enumerator
     869                      .dwattr $C$DW$56, DW_AT_name("SYSCTL_PERIPH_CLK_ECAP7")
     870                      .dwattr $C$DW$56, DW_AT_const_value(0x603)
     871                      .dwattr $C$DW$56, DW_AT_decl_file("C:\ti\C2000Ware_DigitalPower_SDK_5_02_01_00\c2000ware\driverlib\f2
     872                      .dwattr $C$DW$56, DW_AT_decl_line(0x14e)
     873                      .dwattr $C$DW$56, DW_AT_decl_column(0x05)
     874              
     875              $C$DW$57        .dwtag  DW_TAG_enumerator
     876                      .dwattr $C$DW$57, DW_AT_name("SYSCTL_PERIPH_CLK_EQEP1")
     877                      .dwattr $C$DW$57, DW_AT_const_value(0x04)
     878                      .dwattr $C$DW$57, DW_AT_decl_file("C:\ti\C2000Ware_DigitalPower_SDK_5_02_01_00\c2000ware\driverlib\f2
     879                      .dwattr $C$DW$57, DW_AT_decl_line(0x14f)
     880                      .dwattr $C$DW$57, DW_AT_decl_column(0x05)
     881              
     882              $C$DW$58        .dwtag  DW_TAG_enumerator
     883                      .dwattr $C$DW$58, DW_AT_name("SYSCTL_PERIPH_CLK_EQEP2")
     884                      .dwattr $C$DW$58, DW_AT_const_value(0x104)
     885                      .dwattr $C$DW$58, DW_AT_decl_file("C:\ti\C2000Ware_DigitalPower_SDK_5_02_01_00\c2000ware\driverlib\f2
     886                      .dwattr $C$DW$58, DW_AT_decl_line(0x150)
     887                      .dwattr $C$DW$58, DW_AT_decl_column(0x05)
TMS320C2000 Assembler PC v22.6.1 Tue Jul  2 19:04:16 2024

Copyright (c) 1996-2018 Texas Instruments Incorporated
device.asm                                                           PAGE   18

     888              
     889              $C$DW$59        .dwtag  DW_TAG_enumerator
     890                      .dwattr $C$DW$59, DW_AT_name("SYSCTL_PERIPH_CLK_SD1")
     891                      .dwattr $C$DW$59, DW_AT_const_value(0x06)
     892                      .dwattr $C$DW$59, DW_AT_decl_file("C:\ti\C2000Ware_DigitalPower_SDK_5_02_01_00\c2000ware\driverlib\f2
     893                      .dwattr $C$DW$59, DW_AT_decl_line(0x151)
     894                      .dwattr $C$DW$59, DW_AT_decl_column(0x05)
     895              
     896              $C$DW$60        .dwtag  DW_TAG_enumerator
     897                      .dwattr $C$DW$60, DW_AT_name("SYSCTL_PERIPH_CLK_SCIA")
     898                      .dwattr $C$DW$60, DW_AT_const_value(0x07)
     899                      .dwattr $C$DW$60, DW_AT_decl_file("C:\ti\C2000Ware_DigitalPower_SDK_5_02_01_00\c2000ware\driverlib\f2
     900                      .dwattr $C$DW$60, DW_AT_decl_line(0x152)
     901                      .dwattr $C$DW$60, DW_AT_decl_column(0x05)
     902              
     903              $C$DW$61        .dwtag  DW_TAG_enumerator
     904                      .dwattr $C$DW$61, DW_AT_name("SYSCTL_PERIPH_CLK_SCIB")
     905                      .dwattr $C$DW$61, DW_AT_const_value(0x107)
     906                      .dwattr $C$DW$61, DW_AT_decl_file("C:\ti\C2000Ware_DigitalPower_SDK_5_02_01_00\c2000ware\driverlib\f2
     907                      .dwattr $C$DW$61, DW_AT_decl_line(0x153)
     908                      .dwattr $C$DW$61, DW_AT_decl_column(0x05)
     909              
     910              $C$DW$62        .dwtag  DW_TAG_enumerator
     911                      .dwattr $C$DW$62, DW_AT_name("SYSCTL_PERIPH_CLK_SPIA")
     912                      .dwattr $C$DW$62, DW_AT_const_value(0x08)
     913                      .dwattr $C$DW$62, DW_AT_decl_file("C:\ti\C2000Ware_DigitalPower_SDK_5_02_01_00\c2000ware\driverlib\f2
     914                      .dwattr $C$DW$62, DW_AT_decl_line(0x154)
     915                      .dwattr $C$DW$62, DW_AT_decl_column(0x05)
     916              
     917              $C$DW$63        .dwtag  DW_TAG_enumerator
     918                      .dwattr $C$DW$63, DW_AT_name("SYSCTL_PERIPH_CLK_SPIB")
     919                      .dwattr $C$DW$63, DW_AT_const_value(0x108)
     920                      .dwattr $C$DW$63, DW_AT_decl_file("C:\ti\C2000Ware_DigitalPower_SDK_5_02_01_00\c2000ware\driverlib\f2
     921                      .dwattr $C$DW$63, DW_AT_decl_line(0x155)
     922                      .dwattr $C$DW$63, DW_AT_decl_column(0x05)
     923              
     924              $C$DW$64        .dwtag  DW_TAG_enumerator
     925                      .dwattr $C$DW$64, DW_AT_name("SYSCTL_PERIPH_CLK_I2CA")
     926                      .dwattr $C$DW$64, DW_AT_const_value(0x09)
     927                      .dwattr $C$DW$64, DW_AT_decl_file("C:\ti\C2000Ware_DigitalPower_SDK_5_02_01_00\c2000ware\driverlib\f2
     928                      .dwattr $C$DW$64, DW_AT_decl_line(0x156)
     929                      .dwattr $C$DW$64, DW_AT_decl_column(0x05)
     930              
     931              $C$DW$65        .dwtag  DW_TAG_enumerator
     932                      .dwattr $C$DW$65, DW_AT_name("SYSCTL_PERIPH_CLK_CANA")
     933                      .dwattr $C$DW$65, DW_AT_const_value(0x0a)
     934                      .dwattr $C$DW$65, DW_AT_decl_file("C:\ti\C2000Ware_DigitalPower_SDK_5_02_01_00\c2000ware\driverlib\f2
     935                      .dwattr $C$DW$65, DW_AT_decl_line(0x157)
     936                      .dwattr $C$DW$65, DW_AT_decl_column(0x05)
     937              
     938              $C$DW$66        .dwtag  DW_TAG_enumerator
     939                      .dwattr $C$DW$66, DW_AT_name("SYSCTL_PERIPH_CLK_CANB")
     940                      .dwattr $C$DW$66, DW_AT_const_value(0x10a)
     941                      .dwattr $C$DW$66, DW_AT_decl_file("C:\ti\C2000Ware_DigitalPower_SDK_5_02_01_00\c2000ware\driverlib\f2
     942                      .dwattr $C$DW$66, DW_AT_decl_line(0x158)
TMS320C2000 Assembler PC v22.6.1 Tue Jul  2 19:04:16 2024

Copyright (c) 1996-2018 Texas Instruments Incorporated
device.asm                                                           PAGE   19

     943                      .dwattr $C$DW$66, DW_AT_decl_column(0x05)
     944              
     945              $C$DW$67        .dwtag  DW_TAG_enumerator
     946                      .dwattr $C$DW$67, DW_AT_name("SYSCTL_PERIPH_CLK_ADCA")
     947                      .dwattr $C$DW$67, DW_AT_const_value(0x0d)
     948                      .dwattr $C$DW$67, DW_AT_decl_file("C:\ti\C2000Ware_DigitalPower_SDK_5_02_01_00\c2000ware\driverlib\f2
     949                      .dwattr $C$DW$67, DW_AT_decl_line(0x159)
     950                      .dwattr $C$DW$67, DW_AT_decl_column(0x05)
     951              
     952              $C$DW$68        .dwtag  DW_TAG_enumerator
     953                      .dwattr $C$DW$68, DW_AT_name("SYSCTL_PERIPH_CLK_ADCB")
     954                      .dwattr $C$DW$68, DW_AT_const_value(0x10d)
     955                      .dwattr $C$DW$68, DW_AT_decl_file("C:\ti\C2000Ware_DigitalPower_SDK_5_02_01_00\c2000ware\driverlib\f2
     956                      .dwattr $C$DW$68, DW_AT_decl_line(0x15a)
     957                      .dwattr $C$DW$68, DW_AT_decl_column(0x05)
     958              
     959              $C$DW$69        .dwtag  DW_TAG_enumerator
     960                      .dwattr $C$DW$69, DW_AT_name("SYSCTL_PERIPH_CLK_ADCC")
     961                      .dwattr $C$DW$69, DW_AT_const_value(0x20d)
     962                      .dwattr $C$DW$69, DW_AT_decl_file("C:\ti\C2000Ware_DigitalPower_SDK_5_02_01_00\c2000ware\driverlib\f2
     963                      .dwattr $C$DW$69, DW_AT_decl_line(0x15b)
     964                      .dwattr $C$DW$69, DW_AT_decl_column(0x05)
     965              
     966              $C$DW$70        .dwtag  DW_TAG_enumerator
     967                      .dwattr $C$DW$70, DW_AT_name("SYSCTL_PERIPH_CLK_CMPSS1")
     968                      .dwattr $C$DW$70, DW_AT_const_value(0x0e)
     969                      .dwattr $C$DW$70, DW_AT_decl_file("C:\ti\C2000Ware_DigitalPower_SDK_5_02_01_00\c2000ware\driverlib\f2
     970                      .dwattr $C$DW$70, DW_AT_decl_line(0x15c)
     971                      .dwattr $C$DW$70, DW_AT_decl_column(0x05)
     972              
     973              $C$DW$71        .dwtag  DW_TAG_enumerator
     974                      .dwattr $C$DW$71, DW_AT_name("SYSCTL_PERIPH_CLK_CMPSS2")
     975                      .dwattr $C$DW$71, DW_AT_const_value(0x10e)
     976                      .dwattr $C$DW$71, DW_AT_decl_file("C:\ti\C2000Ware_DigitalPower_SDK_5_02_01_00\c2000ware\driverlib\f2
     977                      .dwattr $C$DW$71, DW_AT_decl_line(0x15d)
     978                      .dwattr $C$DW$71, DW_AT_decl_column(0x05)
     979              
     980              $C$DW$72        .dwtag  DW_TAG_enumerator
     981                      .dwattr $C$DW$72, DW_AT_name("SYSCTL_PERIPH_CLK_CMPSS3")
     982                      .dwattr $C$DW$72, DW_AT_const_value(0x20e)
     983                      .dwattr $C$DW$72, DW_AT_decl_file("C:\ti\C2000Ware_DigitalPower_SDK_5_02_01_00\c2000ware\driverlib\f2
     984                      .dwattr $C$DW$72, DW_AT_decl_line(0x15e)
     985                      .dwattr $C$DW$72, DW_AT_decl_column(0x05)
     986              
     987              $C$DW$73        .dwtag  DW_TAG_enumerator
     988                      .dwattr $C$DW$73, DW_AT_name("SYSCTL_PERIPH_CLK_CMPSS4")
     989                      .dwattr $C$DW$73, DW_AT_const_value(0x30e)
     990                      .dwattr $C$DW$73, DW_AT_decl_file("C:\ti\C2000Ware_DigitalPower_SDK_5_02_01_00\c2000ware\driverlib\f2
     991                      .dwattr $C$DW$73, DW_AT_decl_line(0x15f)
     992                      .dwattr $C$DW$73, DW_AT_decl_column(0x05)
     993              
     994              $C$DW$74        .dwtag  DW_TAG_enumerator
     995                      .dwattr $C$DW$74, DW_AT_name("SYSCTL_PERIPH_CLK_CMPSS5")
     996                      .dwattr $C$DW$74, DW_AT_const_value(0x40e)
     997                      .dwattr $C$DW$74, DW_AT_decl_file("C:\ti\C2000Ware_DigitalPower_SDK_5_02_01_00\c2000ware\driverlib\f2
TMS320C2000 Assembler PC v22.6.1 Tue Jul  2 19:04:16 2024

Copyright (c) 1996-2018 Texas Instruments Incorporated
device.asm                                                           PAGE   20

     998                      .dwattr $C$DW$74, DW_AT_decl_line(0x160)
     999                      .dwattr $C$DW$74, DW_AT_decl_column(0x05)
    1000              
    1001              $C$DW$75        .dwtag  DW_TAG_enumerator
    1002                      .dwattr $C$DW$75, DW_AT_name("SYSCTL_PERIPH_CLK_CMPSS6")
    1003                      .dwattr $C$DW$75, DW_AT_const_value(0x50e)
    1004                      .dwattr $C$DW$75, DW_AT_decl_file("C:\ti\C2000Ware_DigitalPower_SDK_5_02_01_00\c2000ware\driverlib\f2
    1005                      .dwattr $C$DW$75, DW_AT_decl_line(0x161)
    1006                      .dwattr $C$DW$75, DW_AT_decl_column(0x05)
    1007              
    1008              $C$DW$76        .dwtag  DW_TAG_enumerator
    1009                      .dwattr $C$DW$76, DW_AT_name("SYSCTL_PERIPH_CLK_CMPSS7")
    1010                      .dwattr $C$DW$76, DW_AT_const_value(0x60e)
    1011                      .dwattr $C$DW$76, DW_AT_decl_file("C:\ti\C2000Ware_DigitalPower_SDK_5_02_01_00\c2000ware\driverlib\f2
    1012                      .dwattr $C$DW$76, DW_AT_decl_line(0x162)
    1013                      .dwattr $C$DW$76, DW_AT_decl_column(0x05)
    1014              
    1015              $C$DW$77        .dwtag  DW_TAG_enumerator
    1016                      .dwattr $C$DW$77, DW_AT_name("SYSCTL_PERIPH_CLK_PGA1")
    1017                      .dwattr $C$DW$77, DW_AT_const_value(0x0f)
    1018                      .dwattr $C$DW$77, DW_AT_decl_file("C:\ti\C2000Ware_DigitalPower_SDK_5_02_01_00\c2000ware\driverlib\f2
    1019                      .dwattr $C$DW$77, DW_AT_decl_line(0x163)
    1020                      .dwattr $C$DW$77, DW_AT_decl_column(0x05)
    1021              
    1022              $C$DW$78        .dwtag  DW_TAG_enumerator
    1023                      .dwattr $C$DW$78, DW_AT_name("SYSCTL_PERIPH_CLK_PGA2")
    1024                      .dwattr $C$DW$78, DW_AT_const_value(0x10f)
    1025                      .dwattr $C$DW$78, DW_AT_decl_file("C:\ti\C2000Ware_DigitalPower_SDK_5_02_01_00\c2000ware\driverlib\f2
    1026                      .dwattr $C$DW$78, DW_AT_decl_line(0x164)
    1027                      .dwattr $C$DW$78, DW_AT_decl_column(0x05)
    1028              
    1029              $C$DW$79        .dwtag  DW_TAG_enumerator
    1030                      .dwattr $C$DW$79, DW_AT_name("SYSCTL_PERIPH_CLK_PGA3")
    1031                      .dwattr $C$DW$79, DW_AT_const_value(0x20f)
    1032                      .dwattr $C$DW$79, DW_AT_decl_file("C:\ti\C2000Ware_DigitalPower_SDK_5_02_01_00\c2000ware\driverlib\f2
    1033                      .dwattr $C$DW$79, DW_AT_decl_line(0x165)
    1034                      .dwattr $C$DW$79, DW_AT_decl_column(0x05)
    1035              
    1036              $C$DW$80        .dwtag  DW_TAG_enumerator
    1037                      .dwattr $C$DW$80, DW_AT_name("SYSCTL_PERIPH_CLK_PGA4")
    1038                      .dwattr $C$DW$80, DW_AT_const_value(0x30f)
    1039                      .dwattr $C$DW$80, DW_AT_decl_file("C:\ti\C2000Ware_DigitalPower_SDK_5_02_01_00\c2000ware\driverlib\f2
    1040                      .dwattr $C$DW$80, DW_AT_decl_line(0x166)
    1041                      .dwattr $C$DW$80, DW_AT_decl_column(0x05)
    1042              
    1043              $C$DW$81        .dwtag  DW_TAG_enumerator
    1044                      .dwattr $C$DW$81, DW_AT_name("SYSCTL_PERIPH_CLK_PGA5")
    1045                      .dwattr $C$DW$81, DW_AT_const_value(0x40f)
    1046                      .dwattr $C$DW$81, DW_AT_decl_file("C:\ti\C2000Ware_DigitalPower_SDK_5_02_01_00\c2000ware\driverlib\f2
    1047                      .dwattr $C$DW$81, DW_AT_decl_line(0x167)
    1048                      .dwattr $C$DW$81, DW_AT_decl_column(0x05)
    1049              
    1050              $C$DW$82        .dwtag  DW_TAG_enumerator
    1051                      .dwattr $C$DW$82, DW_AT_name("SYSCTL_PERIPH_CLK_PGA6")
    1052                      .dwattr $C$DW$82, DW_AT_const_value(0x50f)
TMS320C2000 Assembler PC v22.6.1 Tue Jul  2 19:04:16 2024

Copyright (c) 1996-2018 Texas Instruments Incorporated
device.asm                                                           PAGE   21

    1053                      .dwattr $C$DW$82, DW_AT_decl_file("C:\ti\C2000Ware_DigitalPower_SDK_5_02_01_00\c2000ware\driverlib\f2
    1054                      .dwattr $C$DW$82, DW_AT_decl_line(0x168)
    1055                      .dwattr $C$DW$82, DW_AT_decl_column(0x05)
    1056              
    1057              $C$DW$83        .dwtag  DW_TAG_enumerator
    1058                      .dwattr $C$DW$83, DW_AT_name("SYSCTL_PERIPH_CLK_PGA7")
    1059                      .dwattr $C$DW$83, DW_AT_const_value(0x60f)
    1060                      .dwattr $C$DW$83, DW_AT_decl_file("C:\ti\C2000Ware_DigitalPower_SDK_5_02_01_00\c2000ware\driverlib\f2
    1061                      .dwattr $C$DW$83, DW_AT_decl_line(0x169)
    1062                      .dwattr $C$DW$83, DW_AT_decl_column(0x05)
    1063              
    1064              $C$DW$84        .dwtag  DW_TAG_enumerator
    1065                      .dwattr $C$DW$84, DW_AT_name("SYSCTL_PERIPH_CLK_DACA")
    1066                      .dwattr $C$DW$84, DW_AT_const_value(0x1010)
    1067                      .dwattr $C$DW$84, DW_AT_decl_file("C:\ti\C2000Ware_DigitalPower_SDK_5_02_01_00\c2000ware\driverlib\f2
    1068                      .dwattr $C$DW$84, DW_AT_decl_line(0x16a)
    1069                      .dwattr $C$DW$84, DW_AT_decl_column(0x05)
    1070              
    1071              $C$DW$85        .dwtag  DW_TAG_enumerator
    1072                      .dwattr $C$DW$85, DW_AT_name("SYSCTL_PERIPH_CLK_DACB")
    1073                      .dwattr $C$DW$85, DW_AT_const_value(0x1110)
    1074                      .dwattr $C$DW$85, DW_AT_decl_file("C:\ti\C2000Ware_DigitalPower_SDK_5_02_01_00\c2000ware\driverlib\f2
    1075                      .dwattr $C$DW$85, DW_AT_decl_line(0x16b)
    1076                      .dwattr $C$DW$85, DW_AT_decl_column(0x05)
    1077              
    1078              $C$DW$86        .dwtag  DW_TAG_enumerator
    1079                      .dwattr $C$DW$86, DW_AT_name("SYSCTL_PERIPH_CLK_CLB1")
    1080                      .dwattr $C$DW$86, DW_AT_const_value(0x11)
    1081                      .dwattr $C$DW$86, DW_AT_decl_file("C:\ti\C2000Ware_DigitalPower_SDK_5_02_01_00\c2000ware\driverlib\f2
    1082                      .dwattr $C$DW$86, DW_AT_decl_line(0x16c)
    1083                      .dwattr $C$DW$86, DW_AT_decl_column(0x05)
    1084              
    1085              $C$DW$87        .dwtag  DW_TAG_enumerator
    1086                      .dwattr $C$DW$87, DW_AT_name("SYSCTL_PERIPH_CLK_CLB2")
    1087                      .dwattr $C$DW$87, DW_AT_const_value(0x111)
    1088                      .dwattr $C$DW$87, DW_AT_decl_file("C:\ti\C2000Ware_DigitalPower_SDK_5_02_01_00\c2000ware\driverlib\f2
    1089                      .dwattr $C$DW$87, DW_AT_decl_line(0x16d)
    1090                      .dwattr $C$DW$87, DW_AT_decl_column(0x05)
    1091              
    1092              $C$DW$88        .dwtag  DW_TAG_enumerator
    1093                      .dwattr $C$DW$88, DW_AT_name("SYSCTL_PERIPH_CLK_CLB3")
    1094                      .dwattr $C$DW$88, DW_AT_const_value(0x211)
    1095                      .dwattr $C$DW$88, DW_AT_decl_file("C:\ti\C2000Ware_DigitalPower_SDK_5_02_01_00\c2000ware\driverlib\f2
    1096                      .dwattr $C$DW$88, DW_AT_decl_line(0x16e)
    1097                      .dwattr $C$DW$88, DW_AT_decl_column(0x05)
    1098              
    1099              $C$DW$89        .dwtag  DW_TAG_enumerator
    1100                      .dwattr $C$DW$89, DW_AT_name("SYSCTL_PERIPH_CLK_CLB4")
    1101                      .dwattr $C$DW$89, DW_AT_const_value(0x311)
    1102                      .dwattr $C$DW$89, DW_AT_decl_file("C:\ti\C2000Ware_DigitalPower_SDK_5_02_01_00\c2000ware\driverlib\f2
    1103                      .dwattr $C$DW$89, DW_AT_decl_line(0x16f)
    1104                      .dwattr $C$DW$89, DW_AT_decl_column(0x05)
    1105              
    1106              $C$DW$90        .dwtag  DW_TAG_enumerator
    1107                      .dwattr $C$DW$90, DW_AT_name("SYSCTL_PERIPH_CLK_FSITXA")
TMS320C2000 Assembler PC v22.6.1 Tue Jul  2 19:04:16 2024

Copyright (c) 1996-2018 Texas Instruments Incorporated
device.asm                                                           PAGE   22

    1108                      .dwattr $C$DW$90, DW_AT_const_value(0x12)
    1109                      .dwattr $C$DW$90, DW_AT_decl_file("C:\ti\C2000Ware_DigitalPower_SDK_5_02_01_00\c2000ware\driverlib\f2
    1110                      .dwattr $C$DW$90, DW_AT_decl_line(0x170)
    1111                      .dwattr $C$DW$90, DW_AT_decl_column(0x05)
    1112              
    1113              $C$DW$91        .dwtag  DW_TAG_enumerator
    1114                      .dwattr $C$DW$91, DW_AT_name("SYSCTL_PERIPH_CLK_FSIRXA")
    1115                      .dwattr $C$DW$91, DW_AT_const_value(0x112)
    1116                      .dwattr $C$DW$91, DW_AT_decl_file("C:\ti\C2000Ware_DigitalPower_SDK_5_02_01_00\c2000ware\driverlib\f2
    1117                      .dwattr $C$DW$91, DW_AT_decl_line(0x171)
    1118                      .dwattr $C$DW$91, DW_AT_decl_column(0x05)
    1119              
    1120              $C$DW$92        .dwtag  DW_TAG_enumerator
    1121                      .dwattr $C$DW$92, DW_AT_name("SYSCTL_PERIPH_CLK_LINA")
    1122                      .dwattr $C$DW$92, DW_AT_const_value(0x13)
    1123                      .dwattr $C$DW$92, DW_AT_decl_file("C:\ti\C2000Ware_DigitalPower_SDK_5_02_01_00\c2000ware\driverlib\f2
    1124                      .dwattr $C$DW$92, DW_AT_decl_line(0x172)
    1125                      .dwattr $C$DW$92, DW_AT_decl_column(0x05)
    1126              
    1127              $C$DW$93        .dwtag  DW_TAG_enumerator
    1128                      .dwattr $C$DW$93, DW_AT_name("SYSCTL_PERIPH_CLK_PMBUSA")
    1129                      .dwattr $C$DW$93, DW_AT_const_value(0x14)
    1130                      .dwattr $C$DW$93, DW_AT_decl_file("C:\ti\C2000Ware_DigitalPower_SDK_5_02_01_00\c2000ware\driverlib\f2
    1131                      .dwattr $C$DW$93, DW_AT_decl_line(0x173)
    1132                      .dwattr $C$DW$93, DW_AT_decl_column(0x05)
    1133              
    1134              $C$DW$94        .dwtag  DW_TAG_enumerator
    1135                      .dwattr $C$DW$94, DW_AT_name("SYSCTL_PERIPH_CLK_DCC0")
    1136                      .dwattr $C$DW$94, DW_AT_const_value(0x15)
    1137                      .dwattr $C$DW$94, DW_AT_decl_file("C:\ti\C2000Ware_DigitalPower_SDK_5_02_01_00\c2000ware\driverlib\f2
    1138                      .dwattr $C$DW$94, DW_AT_decl_line(0x174)
    1139                      .dwattr $C$DW$94, DW_AT_decl_column(0x05)
    1140              
    1141                      .dwattr $C$DW$T$19, DW_AT_decl_file("C:\ti\C2000Ware_DigitalPower_SDK_5_02_01_00\c2000ware\driverlib\
    1142                      .dwattr $C$DW$T$19, DW_AT_decl_line(0x138)
    1143                      .dwattr $C$DW$T$19, DW_AT_decl_column(0x01)
    1144                      .dwendtag $C$DW$T$19
    1145              
    1146                      .dwendtag $C$DW$TU$19
    1147              
    1148              
    1149              $C$DW$TU$20     .dwtag  DW_TAG_type_unit
    1150                      .dwmtype  $C$DW$T$20
    1151              $C$DW$T$20      .dwtag  DW_TAG_typedef
    1152                      .dwattr $C$DW$T$20, DW_AT_name("SysCtl_PeripheralPCLOCKCR")
    1153                      .dwattr $C$DW$T$20, DW_AT_type(*$C$DW$T$19)
    1154                      .dwattr $C$DW$T$20, DW_AT_decl_file("C:\ti\C2000Ware_DigitalPower_SDK_5_02_01_00\c2000ware\driverlib\
    1155                      .dwattr $C$DW$T$20, DW_AT_decl_line(0x175)
    1156                      .dwattr $C$DW$T$20, DW_AT_decl_column(0x03)
    1157              
    1158                      .dwendtag $C$DW$TU$20
    1159              
    1160              
    1161              $C$DW$TU$21     .dwtag  DW_TAG_type_unit
    1162                      .dwmtype  $C$DW$T$21
TMS320C2000 Assembler PC v22.6.1 Tue Jul  2 19:04:16 2024

Copyright (c) 1996-2018 Texas Instruments Incorporated
device.asm                                                           PAGE   23

    1163              
    1164              $C$DW$T$21      .dwtag  DW_TAG_enumeration_type
    1165                      .dwattr $C$DW$T$21, DW_AT_byte_size(0x01)
    1166              $C$DW$95        .dwtag  DW_TAG_enumerator
    1167                      .dwattr $C$DW$95, DW_AT_name("SYSCTL_LSPCLK_PRESCALE_1")
    1168                      .dwattr $C$DW$95, DW_AT_const_value(0x00)
    1169                      .dwattr $C$DW$95, DW_AT_decl_file("C:\ti\C2000Ware_DigitalPower_SDK_5_02_01_00\c2000ware\driverlib\f2
    1170                      .dwattr $C$DW$95, DW_AT_decl_line(0x1f1)
    1171                      .dwattr $C$DW$95, DW_AT_decl_column(0x05)
    1172              
    1173              $C$DW$96        .dwtag  DW_TAG_enumerator
    1174                      .dwattr $C$DW$96, DW_AT_name("SYSCTL_LSPCLK_PRESCALE_2")
    1175                      .dwattr $C$DW$96, DW_AT_const_value(0x01)
    1176                      .dwattr $C$DW$96, DW_AT_decl_file("C:\ti\C2000Ware_DigitalPower_SDK_5_02_01_00\c2000ware\driverlib\f2
    1177                      .dwattr $C$DW$96, DW_AT_decl_line(0x1f2)
    1178                      .dwattr $C$DW$96, DW_AT_decl_column(0x05)
    1179              
    1180              $C$DW$97        .dwtag  DW_TAG_enumerator
    1181                      .dwattr $C$DW$97, DW_AT_name("SYSCTL_LSPCLK_PRESCALE_4")
    1182                      .dwattr $C$DW$97, DW_AT_const_value(0x02)
    1183                      .dwattr $C$DW$97, DW_AT_decl_file("C:\ti\C2000Ware_DigitalPower_SDK_5_02_01_00\c2000ware\driverlib\f2
    1184                      .dwattr $C$DW$97, DW_AT_decl_line(0x1f3)
    1185                      .dwattr $C$DW$97, DW_AT_decl_column(0x05)
    1186              
    1187              $C$DW$98        .dwtag  DW_TAG_enumerator
    1188                      .dwattr $C$DW$98, DW_AT_name("SYSCTL_LSPCLK_PRESCALE_6")
    1189                      .dwattr $C$DW$98, DW_AT_const_value(0x03)
    1190                      .dwattr $C$DW$98, DW_AT_decl_file("C:\ti\C2000Ware_DigitalPower_SDK_5_02_01_00\c2000ware\driverlib\f2
    1191                      .dwattr $C$DW$98, DW_AT_decl_line(0x1f4)
    1192                      .dwattr $C$DW$98, DW_AT_decl_column(0x05)
    1193              
    1194              $C$DW$99        .dwtag  DW_TAG_enumerator
    1195                      .dwattr $C$DW$99, DW_AT_name("SYSCTL_LSPCLK_PRESCALE_8")
    1196                      .dwattr $C$DW$99, DW_AT_const_value(0x04)
    1197                      .dwattr $C$DW$99, DW_AT_decl_file("C:\ti\C2000Ware_DigitalPower_SDK_5_02_01_00\c2000ware\driverlib\f2
    1198                      .dwattr $C$DW$99, DW_AT_decl_line(0x1f5)
    1199                      .dwattr $C$DW$99, DW_AT_decl_column(0x05)
    1200              
    1201              $C$DW$100       .dwtag  DW_TAG_enumerator
    1202                      .dwattr $C$DW$100, DW_AT_name("SYSCTL_LSPCLK_PRESCALE_10")
    1203                      .dwattr $C$DW$100, DW_AT_const_value(0x05)
    1204                      .dwattr $C$DW$100, DW_AT_decl_file("C:\ti\C2000Ware_DigitalPower_SDK_5_02_01_00\c2000ware\driverlib\f
    1205                      .dwattr $C$DW$100, DW_AT_decl_line(0x1f6)
    1206                      .dwattr $C$DW$100, DW_AT_decl_column(0x05)
    1207              
    1208              $C$DW$101       .dwtag  DW_TAG_enumerator
    1209                      .dwattr $C$DW$101, DW_AT_name("SYSCTL_LSPCLK_PRESCALE_12")
    1210                      .dwattr $C$DW$101, DW_AT_const_value(0x06)
    1211                      .dwattr $C$DW$101, DW_AT_decl_file("C:\ti\C2000Ware_DigitalPower_SDK_5_02_01_00\c2000ware\driverlib\f
    1212                      .dwattr $C$DW$101, DW_AT_decl_line(0x1f7)
    1213                      .dwattr $C$DW$101, DW_AT_decl_column(0x05)
    1214              
    1215              $C$DW$102       .dwtag  DW_TAG_enumerator
    1216                      .dwattr $C$DW$102, DW_AT_name("SYSCTL_LSPCLK_PRESCALE_14")
    1217                      .dwattr $C$DW$102, DW_AT_const_value(0x07)
TMS320C2000 Assembler PC v22.6.1 Tue Jul  2 19:04:16 2024

Copyright (c) 1996-2018 Texas Instruments Incorporated
device.asm                                                           PAGE   24

    1218                      .dwattr $C$DW$102, DW_AT_decl_file("C:\ti\C2000Ware_DigitalPower_SDK_5_02_01_00\c2000ware\driverlib\f
    1219                      .dwattr $C$DW$102, DW_AT_decl_line(0x1f8)
    1220                      .dwattr $C$DW$102, DW_AT_decl_column(0x05)
    1221              
    1222                      .dwattr $C$DW$T$21, DW_AT_decl_file("C:\ti\C2000Ware_DigitalPower_SDK_5_02_01_00\c2000ware\driverlib\
    1223                      .dwattr $C$DW$T$21, DW_AT_decl_line(0x1f0)
    1224                      .dwattr $C$DW$T$21, DW_AT_decl_column(0x01)
    1225                      .dwendtag $C$DW$T$21
    1226              
    1227                      .dwendtag $C$DW$TU$21
    1228              
    1229              
    1230              $C$DW$TU$22     .dwtag  DW_TAG_type_unit
    1231                      .dwmtype  $C$DW$T$22
    1232              $C$DW$T$22      .dwtag  DW_TAG_typedef
    1233                      .dwattr $C$DW$T$22, DW_AT_name("SysCtl_LSPCLKPrescaler")
    1234                      .dwattr $C$DW$T$22, DW_AT_type(*$C$DW$T$21)
    1235                      .dwattr $C$DW$T$22, DW_AT_decl_file("C:\ti\C2000Ware_DigitalPower_SDK_5_02_01_00\c2000ware\driverlib\
    1236                      .dwattr $C$DW$T$22, DW_AT_decl_line(0x1f9)
    1237                      .dwattr $C$DW$T$22, DW_AT_decl_column(0x03)
    1238              
    1239                      .dwendtag $C$DW$TU$22
    1240              
    1241              
    1242              $C$DW$TU$23     .dwtag  DW_TAG_type_unit
    1243                      .dwmtype  $C$DW$T$23
    1244              
    1245              $C$DW$T$23      .dwtag  DW_TAG_enumeration_type
    1246                      .dwattr $C$DW$T$23, DW_AT_byte_size(0x01)
    1247              $C$DW$103       .dwtag  DW_TAG_enumerator
    1248                      .dwattr $C$DW$103, DW_AT_name("GPIO_PORT_A")
    1249                      .dwattr $C$DW$103, DW_AT_const_value(0x00)
    1250                      .dwattr $C$DW$103, DW_AT_decl_file("C:/ti/C2000Ware_DigitalPower_SDK_5_02_01_00/c2000ware/driverlib/f
    1251                      .dwattr $C$DW$103, DW_AT_decl_line(0xba)
    1252                      .dwattr $C$DW$103, DW_AT_decl_column(0x05)
    1253              
    1254              $C$DW$104       .dwtag  DW_TAG_enumerator
    1255                      .dwattr $C$DW$104, DW_AT_name("GPIO_PORT_B")
    1256                      .dwattr $C$DW$104, DW_AT_const_value(0x01)
    1257                      .dwattr $C$DW$104, DW_AT_decl_file("C:/ti/C2000Ware_DigitalPower_SDK_5_02_01_00/c2000ware/driverlib/f
    1258                      .dwattr $C$DW$104, DW_AT_decl_line(0xbb)
    1259                      .dwattr $C$DW$104, DW_AT_decl_column(0x05)
    1260              
    1261              $C$DW$105       .dwtag  DW_TAG_enumerator
    1262                      .dwattr $C$DW$105, DW_AT_name("GPIO_PORT_H")
    1263                      .dwattr $C$DW$105, DW_AT_const_value(0x07)
    1264                      .dwattr $C$DW$105, DW_AT_decl_file("C:/ti/C2000Ware_DigitalPower_SDK_5_02_01_00/c2000ware/driverlib/f
    1265                      .dwattr $C$DW$105, DW_AT_decl_line(0xbc)
    1266                      .dwattr $C$DW$105, DW_AT_decl_column(0x05)
    1267              
    1268                      .dwattr $C$DW$T$23, DW_AT_decl_file("C:/ti/C2000Ware_DigitalPower_SDK_5_02_01_00/c2000ware/driverlib/
    1269                      .dwattr $C$DW$T$23, DW_AT_decl_line(0xb9)
    1270                      .dwattr $C$DW$T$23, DW_AT_decl_column(0x01)
    1271                      .dwendtag $C$DW$T$23
    1272              
TMS320C2000 Assembler PC v22.6.1 Tue Jul  2 19:04:16 2024

Copyright (c) 1996-2018 Texas Instruments Incorporated
device.asm                                                           PAGE   25

    1273                      .dwendtag $C$DW$TU$23
    1274              
    1275              
    1276              $C$DW$TU$24     .dwtag  DW_TAG_type_unit
    1277                      .dwmtype  $C$DW$T$24
    1278              $C$DW$T$24      .dwtag  DW_TAG_typedef
    1279                      .dwattr $C$DW$T$24, DW_AT_name("GPIO_Port")
    1280                      .dwattr $C$DW$T$24, DW_AT_type(*$C$DW$T$23)
    1281                      .dwattr $C$DW$T$24, DW_AT_decl_file("C:/ti/C2000Ware_DigitalPower_SDK_5_02_01_00/c2000ware/driverlib/
    1282                      .dwattr $C$DW$T$24, DW_AT_decl_line(0xbd)
    1283                      .dwattr $C$DW$T$24, DW_AT_decl_column(0x03)
    1284              
    1285                      .dwendtag $C$DW$TU$24
    1286              
    1287              
    1288              $C$DW$TU$2      .dwtag  DW_TAG_type_unit
    1289                      .dwmtype  $C$DW$T$2
    1290              $C$DW$T$2       .dwtag  DW_TAG_unspecified_type
    1291                      .dwattr $C$DW$T$2, DW_AT_name("void")
    1292              
    1293                      .dwendtag $C$DW$TU$2
    1294              
    1295              
    1296              $C$DW$TU$4      .dwtag  DW_TAG_type_unit
    1297                      .dwmtype  $C$DW$T$4
    1298              $C$DW$T$4       .dwtag  DW_TAG_base_type
    1299                      .dwattr $C$DW$T$4, DW_AT_encoding(DW_ATE_boolean)
    1300                      .dwattr $C$DW$T$4, DW_AT_name("bool")
    1301                      .dwattr $C$DW$T$4, DW_AT_byte_size(0x01)
    1302              
    1303                      .dwendtag $C$DW$TU$4
    1304              
    1305              
    1306              $C$DW$TU$5      .dwtag  DW_TAG_type_unit
    1307                      .dwmtype  $C$DW$T$5
    1308              $C$DW$T$5       .dwtag  DW_TAG_base_type
    1309                      .dwattr $C$DW$T$5, DW_AT_encoding(DW_ATE_signed_char)
    1310                      .dwattr $C$DW$T$5, DW_AT_name("signed char")
    1311                      .dwattr $C$DW$T$5, DW_AT_byte_size(0x01)
    1312              
    1313                      .dwendtag $C$DW$TU$5
    1314              
    1315              
    1316              $C$DW$TU$6      .dwtag  DW_TAG_type_unit
    1317                      .dwmtype  $C$DW$T$6
    1318              $C$DW$T$6       .dwtag  DW_TAG_base_type
    1319                      .dwattr $C$DW$T$6, DW_AT_encoding(DW_ATE_unsigned_char)
    1320                      .dwattr $C$DW$T$6, DW_AT_name("unsigned char")
    1321                      .dwattr $C$DW$T$6, DW_AT_byte_size(0x01)
    1322              
    1323                      .dwendtag $C$DW$TU$6
    1324              
    1325              
    1326              $C$DW$TU$7      .dwtag  DW_TAG_type_unit
    1327                      .dwmtype  $C$DW$T$7
TMS320C2000 Assembler PC v22.6.1 Tue Jul  2 19:04:16 2024

Copyright (c) 1996-2018 Texas Instruments Incorporated
device.asm                                                           PAGE   26

    1328              $C$DW$T$7       .dwtag  DW_TAG_base_type
    1329                      .dwattr $C$DW$T$7, DW_AT_encoding(DW_ATE_signed_char)
    1330                      .dwattr $C$DW$T$7, DW_AT_name("wchar_t")
    1331                      .dwattr $C$DW$T$7, DW_AT_byte_size(0x02)
    1332              
    1333                      .dwendtag $C$DW$TU$7
    1334              
    1335              
    1336              $C$DW$TU$8      .dwtag  DW_TAG_type_unit
    1337                      .dwmtype  $C$DW$T$8
    1338              $C$DW$T$8       .dwtag  DW_TAG_base_type
    1339                      .dwattr $C$DW$T$8, DW_AT_encoding(DW_ATE_signed)
    1340                      .dwattr $C$DW$T$8, DW_AT_name("short")
    1341                      .dwattr $C$DW$T$8, DW_AT_byte_size(0x01)
    1342              
    1343                      .dwendtag $C$DW$TU$8
    1344              
    1345              
    1346              $C$DW$TU$9      .dwtag  DW_TAG_type_unit
    1347                      .dwmtype  $C$DW$T$9
    1348              $C$DW$T$9       .dwtag  DW_TAG_base_type
    1349                      .dwattr $C$DW$T$9, DW_AT_encoding(DW_ATE_unsigned)
    1350                      .dwattr $C$DW$T$9, DW_AT_name("unsigned short")
    1351                      .dwattr $C$DW$T$9, DW_AT_byte_size(0x01)
    1352              
    1353                      .dwendtag $C$DW$TU$9
    1354              
    1355              
    1356              $C$DW$TU$10     .dwtag  DW_TAG_type_unit
    1357                      .dwmtype  $C$DW$T$10
    1358              $C$DW$T$10      .dwtag  DW_TAG_base_type
    1359                      .dwattr $C$DW$T$10, DW_AT_encoding(DW_ATE_signed)
    1360                      .dwattr $C$DW$T$10, DW_AT_name("int")
    1361                      .dwattr $C$DW$T$10, DW_AT_byte_size(0x01)
    1362              
    1363                      .dwendtag $C$DW$TU$10
    1364              
    1365              
    1366              $C$DW$TU$11     .dwtag  DW_TAG_type_unit
    1367                      .dwmtype  $C$DW$T$11
    1368              $C$DW$T$11      .dwtag  DW_TAG_base_type
    1369                      .dwattr $C$DW$T$11, DW_AT_encoding(DW_ATE_unsigned)
    1370                      .dwattr $C$DW$T$11, DW_AT_name("unsigned int")
    1371                      .dwattr $C$DW$T$11, DW_AT_byte_size(0x01)
    1372              
    1373                      .dwendtag $C$DW$TU$11
    1374              
    1375              
    1376              $C$DW$TU$33     .dwtag  DW_TAG_type_unit
    1377                      .dwmtype  $C$DW$T$33
    1378              $C$DW$T$33      .dwtag  DW_TAG_typedef
    1379                      .dwattr $C$DW$T$33, DW_AT_name("__uint16_t")
    1380                      .dwattr $C$DW$T$33, DW_AT_type(*$C$DW$T$11)
    1381                      .dwattr $C$DW$T$33, DW_AT_decl_file("C:/ti/ccs1260/ccs/tools/compiler/ti-cgt-c2000_22.6.1.LTS/include
    1382                      .dwattr $C$DW$T$33, DW_AT_decl_line(0x41)
TMS320C2000 Assembler PC v22.6.1 Tue Jul  2 19:04:16 2024

Copyright (c) 1996-2018 Texas Instruments Incorporated
device.asm                                                           PAGE   27

    1383                      .dwattr $C$DW$T$33, DW_AT_decl_column(0x1c)
    1384              
    1385                      .dwendtag $C$DW$TU$33
    1386              
    1387              
    1388              $C$DW$TU$34     .dwtag  DW_TAG_type_unit
    1389                      .dwmtype  $C$DW$T$34
    1390              $C$DW$T$34      .dwtag  DW_TAG_typedef
    1391                      .dwattr $C$DW$T$34, DW_AT_name("uint16_t")
    1392                      .dwattr $C$DW$T$34, DW_AT_type(*$C$DW$T$33)
    1393                      .dwattr $C$DW$T$34, DW_AT_decl_file("C:/ti/ccs1260/ccs/tools/compiler/ti-cgt-c2000_22.6.1.LTS/include
    1394                      .dwattr $C$DW$T$34, DW_AT_decl_line(0x41)
    1395                      .dwattr $C$DW$T$34, DW_AT_decl_column(0x15)
    1396              
    1397                      .dwendtag $C$DW$TU$34
    1398              
    1399              
    1400              $C$DW$TU$12     .dwtag  DW_TAG_type_unit
    1401                      .dwmtype  $C$DW$T$12
    1402              $C$DW$T$12      .dwtag  DW_TAG_base_type
    1403                      .dwattr $C$DW$T$12, DW_AT_encoding(DW_ATE_signed)
    1404                      .dwattr $C$DW$T$12, DW_AT_name("long")
    1405                      .dwattr $C$DW$T$12, DW_AT_byte_size(0x02)
    1406              
    1407                      .dwendtag $C$DW$TU$12
    1408              
    1409              
    1410              $C$DW$TU$13     .dwtag  DW_TAG_type_unit
    1411                      .dwmtype  $C$DW$T$13
    1412              $C$DW$T$13      .dwtag  DW_TAG_base_type
    1413                      .dwattr $C$DW$T$13, DW_AT_encoding(DW_ATE_unsigned)
    1414                      .dwattr $C$DW$T$13, DW_AT_name("unsigned long")
    1415                      .dwattr $C$DW$T$13, DW_AT_byte_size(0x02)
    1416              
    1417                      .dwendtag $C$DW$TU$13
    1418              
    1419              
    1420              $C$DW$TU$31     .dwtag  DW_TAG_type_unit
    1421                      .dwmtype  $C$DW$T$31
    1422              $C$DW$T$31      .dwtag  DW_TAG_typedef
    1423                      .dwattr $C$DW$T$31, DW_AT_name("__uint32_t")
    1424                      .dwattr $C$DW$T$31, DW_AT_type(*$C$DW$T$13)
    1425                      .dwattr $C$DW$T$31, DW_AT_decl_file("C:/ti/ccs1260/ccs/tools/compiler/ti-cgt-c2000_22.6.1.LTS/include
    1426                      .dwattr $C$DW$T$31, DW_AT_decl_line(0x43)
    1427                      .dwattr $C$DW$T$31, DW_AT_decl_column(0x1c)
    1428              
    1429                      .dwendtag $C$DW$TU$31
    1430              
    1431              
    1432              $C$DW$TU$32     .dwtag  DW_TAG_type_unit
    1433                      .dwmtype  $C$DW$T$32
    1434              $C$DW$T$32      .dwtag  DW_TAG_typedef
    1435                      .dwattr $C$DW$T$32, DW_AT_name("uint32_t")
    1436                      .dwattr $C$DW$T$32, DW_AT_type(*$C$DW$T$31)
    1437                      .dwattr $C$DW$T$32, DW_AT_decl_file("C:/ti/ccs1260/ccs/tools/compiler/ti-cgt-c2000_22.6.1.LTS/include
TMS320C2000 Assembler PC v22.6.1 Tue Jul  2 19:04:16 2024

Copyright (c) 1996-2018 Texas Instruments Incorporated
device.asm                                                           PAGE   28

    1438                      .dwattr $C$DW$T$32, DW_AT_decl_line(0x46)
    1439                      .dwattr $C$DW$T$32, DW_AT_decl_column(0x15)
    1440              
    1441                      .dwendtag $C$DW$TU$32
    1442              
    1443              
    1444              $C$DW$TU$51     .dwtag  DW_TAG_type_unit
    1445                      .dwmtype  $C$DW$T$51
    1446              $C$DW$T$51      .dwtag  DW_TAG_pointer_type
    1447                      .dwattr $C$DW$T$51, DW_AT_type(*$C$DW$T$32)
    1448                      .dwattr $C$DW$T$51, DW_AT_address_class(0x20)
    1449              
    1450                      .dwendtag $C$DW$TU$51
    1451              
    1452              
    1453              $C$DW$TU$14     .dwtag  DW_TAG_type_unit
    1454                      .dwmtype  $C$DW$T$14
    1455              $C$DW$T$14      .dwtag  DW_TAG_base_type
    1456                      .dwattr $C$DW$T$14, DW_AT_encoding(DW_ATE_signed)
    1457                      .dwattr $C$DW$T$14, DW_AT_name("long long")
    1458                      .dwattr $C$DW$T$14, DW_AT_byte_size(0x04)
    1459              
    1460                      .dwendtag $C$DW$TU$14
    1461              
    1462              
    1463              $C$DW$TU$15     .dwtag  DW_TAG_type_unit
    1464                      .dwmtype  $C$DW$T$15
    1465              $C$DW$T$15      .dwtag  DW_TAG_base_type
    1466                      .dwattr $C$DW$T$15, DW_AT_encoding(DW_ATE_unsigned)
    1467                      .dwattr $C$DW$T$15, DW_AT_name("unsigned long long")
    1468                      .dwattr $C$DW$T$15, DW_AT_byte_size(0x04)
    1469              
    1470                      .dwendtag $C$DW$TU$15
    1471              
    1472              
    1473              $C$DW$TU$16     .dwtag  DW_TAG_type_unit
    1474                      .dwmtype  $C$DW$T$16
    1475              $C$DW$T$16      .dwtag  DW_TAG_base_type
    1476                      .dwattr $C$DW$T$16, DW_AT_encoding(DW_ATE_float)
    1477                      .dwattr $C$DW$T$16, DW_AT_name("float")
    1478                      .dwattr $C$DW$T$16, DW_AT_byte_size(0x02)
    1479              
    1480                      .dwendtag $C$DW$TU$16
    1481              
    1482              
    1483              $C$DW$TU$17     .dwtag  DW_TAG_type_unit
    1484                      .dwmtype  $C$DW$T$17
    1485              $C$DW$T$17      .dwtag  DW_TAG_base_type
    1486                      .dwattr $C$DW$T$17, DW_AT_encoding(DW_ATE_float)
    1487                      .dwattr $C$DW$T$17, DW_AT_name("double")
    1488                      .dwattr $C$DW$T$17, DW_AT_byte_size(0x04)
    1489              
    1490                      .dwendtag $C$DW$TU$17
    1491              
    1492              
TMS320C2000 Assembler PC v22.6.1 Tue Jul  2 19:04:16 2024

Copyright (c) 1996-2018 Texas Instruments Incorporated
device.asm                                                           PAGE   29

    1493              $C$DW$TU$18     .dwtag  DW_TAG_type_unit
    1494                      .dwmtype  $C$DW$T$18
    1495              $C$DW$T$18      .dwtag  DW_TAG_base_type
    1496                      .dwattr $C$DW$T$18, DW_AT_encoding(DW_ATE_float)
    1497                      .dwattr $C$DW$T$18, DW_AT_name("long double")
    1498                      .dwattr $C$DW$T$18, DW_AT_byte_size(0x04)
    1499              
    1500                      .dwendtag $C$DW$TU$18
    1501              
    1502              
    1503              $C$DW$TU$39     .dwtag  DW_TAG_type_unit
    1504                      .dwmtype  $C$DW$T$39
    1505              $C$DW$106       .dwtag  DW_TAG_TI_far_type
    1506                      .dwattr $C$DW$106, DW_AT_type(*$C$DW$T$5)
    1507              
    1508              $C$DW$T$39      .dwtag  DW_TAG_const_type
    1509                      .dwattr $C$DW$T$39, DW_AT_type(*$C$DW$106)
    1510              
    1511                      .dwendtag $C$DW$TU$39
    1512              
    1513              
    1514              $C$DW$TU$40     .dwtag  DW_TAG_type_unit
    1515                      .dwmtype  $C$DW$T$40
    1516              $C$DW$T$40      .dwtag  DW_TAG_pointer_type
    1517                      .dwattr $C$DW$T$40, DW_AT_type(*$C$DW$T$39)
    1518                      .dwattr $C$DW$T$40, DW_AT_address_class(0x20)
    1519              
    1520                      .dwendtag $C$DW$TU$40
    1521              
    1522              
    1523              $C$DW$TU$52     .dwtag  DW_TAG_type_unit
    1524                      .dwmtype  $C$DW$T$52
    1525              $C$DW$T$52      .dwtag  DW_TAG_base_type
    1526                      .dwattr $C$DW$T$52, DW_AT_encoding(DW_ATE_unsigned_char)
    1527                      .dwattr $C$DW$T$52, DW_AT_name("unsigned char")
    1528                      .dwattr $C$DW$T$52, DW_AT_byte_size(0x01)
    1529              
    1530                      .dwendtag $C$DW$TU$52
    1531              

No Assembly Errors, No Assembly Warnings
